---
triple:          'arm64-apple-darwin'
binary-path:     '/Users/oliviapratt/SimpleCompiler/a.out'
relocations:
  - { offsetInCU: 0x6176, offset: 0x6176, size: 0x8, addend: 0x0, symName: __ZNSt3__112__to_addressB8ue170006IcEEPT_S2_, symObjAddr: 0x65C, symBinAddr: 0x1000033E4, symSize: 0x14 }
  - { offsetInCU: 0x61AB, offset: 0x61AB, size: 0x8, addend: 0x0, symName: __ZNSt3__13maxB8ue170006ImEERKT_S3_S3_, symObjAddr: 0xA88, symBinAddr: 0x100003810, symSize: 0x2C }
  - { offsetInCU: 0x61EE, offset: 0x61EE, size: 0x8, addend: 0x0, symName: __ZNSt3__13minB8ue170006ImEERKT_S3_S3_, symObjAddr: 0xAB4, symBinAddr: 0x10000383C, symSize: 0x2C }
  - { offsetInCU: 0x6432, offset: 0x6432, size: 0x8, addend: 0x0, symName: __ZNSt3__13minB8ue170006ImNS_6__lessIvvEEEERKT_S5_S5_T0_, symObjAddr: 0xB40, symBinAddr: 0x1000038C8, symSize: 0x54 }
  - { offsetInCU: 0x64D1, offset: 0x64D1, size: 0x8, addend: 0x0, symName: __ZNSt3__120__throw_length_errorB8ue170006EPKc, symObjAddr: 0xC1C, symBinAddr: 0x1000039A4, symSize: 0x64 }
  - { offsetInCU: 0x64FB, offset: 0x64FB, size: 0x8, addend: 0x0, symName: __ZNSt3__13maxB8ue170006ImNS_6__lessIvvEEEERKT_S5_S5_T0_, symObjAddr: 0xD60, symBinAddr: 0x100003AE8, symSize: 0x54 }
  - { offsetInCU: 0x6555, offset: 0x6555, size: 0x8, addend: 0x0, symName: __ZNSt3__119__allocate_at_leastB8ue170006INS_9allocatorIcEEEENS_19__allocation_resultINS_16allocator_traitsIT_E7pointerEEERS5_m, symObjAddr: 0xEC4, symBinAddr: 0x100003C4C, symSize: 0x40 }
  - { offsetInCU: 0x6598, offset: 0x6598, size: 0x8, addend: 0x0, symName: __ZNSt3__130__libcpp_is_constant_evaluatedB8ue170006Ev, symObjAddr: 0x1090, symBinAddr: 0x100003E18, symSize: 0xC }
  - { offsetInCU: 0x65B5, offset: 0x65B5, size: 0x8, addend: 0x0, symName: __ZNSt3__117__libcpp_allocateB8ue170006Emm, symObjAddr: 0x109C, symBinAddr: 0x100003E24, symSize: 0x28 }
  - { offsetInCU: 0x65F2, offset: 0x65F2, size: 0x8, addend: 0x0, symName: __ZNSt3__121__libcpp_operator_newB8ue170006IJmEEEPvDpT_, symObjAddr: 0x10C4, symBinAddr: 0x100003E4C, symSize: 0x24 }
  - { offsetInCU: 0x662B, offset: 0x662B, size: 0x8, addend: 0x0, symName: __ZNSt3__142__uninitialized_allocator_move_if_noexceptB8ue170006INS_9allocatorIcEENS_16reverse_iteratorIPcEES5_cvEET1_RT_T0_S9_S6_, symObjAddr: 0x1204, symBinAddr: 0x100003F8C, symSize: 0xE8 }
  - { offsetInCU: 0x66A8, offset: 0x66A8, size: 0x8, addend: 0x0, symName: __ZNSt3__14swapB8ue170006IPcEEvRT_S3_, symObjAddr: 0x1338, symBinAddr: 0x1000040C0, symSize: 0x3C }
  - { offsetInCU: 0x66F9, offset: 0x66F9, size: 0x8, addend: 0x0, symName: __ZNSt3__1neB8ue170006IPcS1_EEbRKNS_16reverse_iteratorIT_EERKNS2_IT0_EE, symObjAddr: 0x1468, symBinAddr: 0x1000041F0, symSize: 0x48 }
  - { offsetInCU: 0x676A, offset: 0x676A, size: 0x8, addend: 0x0, symName: __ZNSt3__114__construct_atB8ue170006IcJcEPcEEPT_S3_DpOT0_, symObjAddr: 0x14B0, symBinAddr: 0x100004238, symSize: 0x2C }
  - { offsetInCU: 0x67DA, offset: 0x67DA, size: 0x8, addend: 0x0, symName: __ZNSt3__112__to_addressB8ue170006INS_16reverse_iteratorIPcEEvEEu7__decayIDTclsr19__to_address_helperIT_EE6__callclsr3stdE7declvalIRKS4_EEEEES6_, symObjAddr: 0x14DC, symBinAddr: 0x100004264, symSize: 0x24 }
  - { offsetInCU: 0x6810, offset: 0x6810, size: 0x8, addend: 0x0, symName: __ZNSt3__14moveB8ue170006INS_16reverse_iteratorIPcEES3_EET0_T_S5_S4_, symObjAddr: 0x1548, symBinAddr: 0x1000042D0, symSize: 0x78 }
  - { offsetInCU: 0x6893, offset: 0x6893, size: 0x8, addend: 0x0, symName: __ZNSt3__16__moveB8ue170006INS_17_ClassicAlgPolicyENS_16reverse_iteratorIPcEES4_S4_EENS_4pairIT0_T2_EES6_T1_S7_, symObjAddr: 0x1630, symBinAddr: 0x1000043B8, symSize: 0x64 }
  - { offsetInCU: 0x68FF, offset: 0x68FF, size: 0x8, addend: 0x0, symName: __ZNSt3__123__dispatch_copy_or_moveB8ue170006INS_17_ClassicAlgPolicyENS_11__move_loopIS1_EENS_14__move_trivialENS_16reverse_iteratorIPcEES7_S7_EENS_4pairIT2_T4_EES9_T3_SA_, symObjAddr: 0x1694, symBinAddr: 0x10000441C, symSize: 0x64 }
  - { offsetInCU: 0x697D, offset: 0x697D, size: 0x8, addend: 0x0, symName: __ZNSt3__121__unwrap_and_dispatchB8ue170006INS_10__overloadINS_11__move_loopINS_17_ClassicAlgPolicyEEENS_14__move_trivialEEENS_16reverse_iteratorIPcEES9_S9_Li0EEENS_4pairIT0_T2_EESB_T1_SC_, symObjAddr: 0x16F8, symBinAddr: 0x100004480, symSize: 0x12C }
  - { offsetInCU: 0x6A0D, offset: 0x6A0D, size: 0x8, addend: 0x0, symName: __ZNSt3__114__unwrap_rangeB8ue170006INS_16reverse_iteratorIPcEES3_EENS_4pairIT0_S5_EET_S7_, symObjAddr: 0x1824, symBinAddr: 0x1000045AC, symSize: 0x84 }
  - { offsetInCU: 0x6B61, offset: 0x6B61, size: 0x8, addend: 0x0, symName: __ZNSt3__113__unwrap_iterB8ue170006INS_16reverse_iteratorIPcEENS_18__unwrap_iter_implIS3_Lb0EEELi0EEEDTclsrT0_8__unwrapclsr3stdE7declvalIT_EEEES7_, symObjAddr: 0x1948, symBinAddr: 0x1000046D0, symSize: 0x44 }
  - { offsetInCU: 0x6BA5, offset: 0x6BA5, size: 0x8, addend: 0x0, symName: __ZNSt3__19make_pairB8ue170006INS_16reverse_iteratorIPcEES3_EENS_4pairINS_18__unwrap_ref_decayIT_E4typeENS5_IT0_E4typeEEEOS6_OS9_, symObjAddr: 0x198C, symBinAddr: 0x100004714, symSize: 0x38 }
  - { offsetInCU: 0x6BF4, offset: 0x6BF4, size: 0x8, addend: 0x0, symName: __ZNSt3__114__rewrap_rangeB8ue170006INS_16reverse_iteratorIPcEES3_EET_S4_T0_, symObjAddr: 0x19C4, symBinAddr: 0x10000474C, symSize: 0x5C }
  - { offsetInCU: 0x6C40, offset: 0x6C40, size: 0x8, addend: 0x0, symName: __ZNSt3__113__rewrap_iterB8ue170006INS_16reverse_iteratorIPcEES3_NS_18__unwrap_iter_implIS3_Lb0EEEEET_S6_T0_, symObjAddr: 0x1A20, symBinAddr: 0x1000047A8, symSize: 0x88 }
  - { offsetInCU: 0x6D47, offset: 0x6D47, size: 0x8, addend: 0x0, symName: __ZNSt3__119__libcpp_deallocateB8ue170006EPvmm, symObjAddr: 0x1E40, symBinAddr: 0x100004BC8, symSize: 0x30 }
  - { offsetInCU: 0x6D8F, offset: 0x6D8F, size: 0x8, addend: 0x0, symName: __ZNSt3__127__do_deallocate_handle_sizeB8ue170006IJEEEvPvmDpT_, symObjAddr: 0x1E70, symBinAddr: 0x100004BF8, symSize: 0x28 }
  - { offsetInCU: 0x6DCD, offset: 0x6DCD, size: 0x8, addend: 0x0, symName: __ZNSt3__124__libcpp_operator_deleteB8ue170006IJPvEEEvDpT_, symObjAddr: 0x1E98, symBinAddr: 0x100004C20, symSize: 0x24 }
  - { offsetInCU: 0x7013, offset: 0x7013, size: 0x8, addend: 0x0, symName: __ZSt28__throw_bad_array_new_lengthB8ue170006v, symObjAddr: 0x105C, symBinAddr: 0x100003DE4, symSize: 0x34 }
  - { offsetInCU: 0x7446, offset: 0x7446, size: 0x8, addend: 0x0, symName: __ZNSt3__16vectorIcNS_9allocatorIcEEE26__swap_out_circular_bufferERNS_14__split_bufferIcRS2_EE, symObjAddr: 0x884, symBinAddr: 0x10000360C, symSize: 0x110 }
  - { offsetInCU: 0x97E9, offset: 0x97E9, size: 0x8, addend: 0x0, symName: __ZN11InputBuffer10EndOfInputEv, symObjAddr: 0x0, symBinAddr: 0x100002D88, symSize: 0x70 }
  - { offsetInCU: 0x9810, offset: 0x9810, size: 0x8, addend: 0x0, symName: __ZNKSt3__16vectorIcNS_9allocatorIcEEE5emptyB8ue170006Ev, symObjAddr: 0x70, symBinAddr: 0x100002DF8, symSize: 0x28 }
  - { offsetInCU: 0x98DD, offset: 0x98DD, size: 0x8, addend: 0x0, symName: __ZNKSt3__19basic_iosIcNS_11char_traitsIcEEE3eofB8ue170006Ev, symObjAddr: 0x98, symBinAddr: 0x100002E20, symSize: 0x28 }
  - { offsetInCU: 0x9902, offset: 0x9902, size: 0x8, addend: 0x0, symName: __ZN11InputBuffer9UngetCharEc, symObjAddr: 0xC0, symBinAddr: 0x100002E48, symSize: 0x50 }
  - { offsetInCU: 0x9936, offset: 0x9936, size: 0x8, addend: 0x0, symName: __ZNSt3__16vectorIcNS_9allocatorIcEEE9push_backB8ue170006ERKc, symObjAddr: 0x110, symBinAddr: 0x100002E98, symSize: 0x6C }
  - { offsetInCU: 0x996C, offset: 0x996C, size: 0x8, addend: 0x0, symName: __ZN11InputBuffer7GetCharERc, symObjAddr: 0x17C, symBinAddr: 0x100002F04, symSize: 0x6C }
  - { offsetInCU: 0x99A1, offset: 0x99A1, size: 0x8, addend: 0x0, symName: __ZNSt3__16vectorIcNS_9allocatorIcEEE4backB8ue170006Ev, symObjAddr: 0x1E8, symBinAddr: 0x100002F70, symSize: 0x1C }
  - { offsetInCU: 0x99C5, offset: 0x99C5, size: 0x8, addend: 0x0, symName: __ZNSt3__16vectorIcNS_9allocatorIcEEE8pop_backEv, symObjAddr: 0x204, symBinAddr: 0x100002F8C, symSize: 0x2C }
  - { offsetInCU: 0x9A75, offset: 0x9A75, size: 0x8, addend: 0x0, symName: __ZNSt3__113basic_istreamIcNS_11char_traitsIcEEE3getB8ue170006ERc, symObjAddr: 0x230, symBinAddr: 0x100002FB8, symSize: 0x68 }
  - { offsetInCU: 0x9AB9, offset: 0x9AB9, size: 0x8, addend: 0x0, symName: __ZN11InputBuffer11UngetStringENSt3__112basic_stringIcNS0_11char_traitsIcEENS0_9allocatorIcEEEE, symObjAddr: 0x298, symBinAddr: 0x100003020, symSize: 0xAC }
  - { offsetInCU: 0x9B0C, offset: 0x9B0C, size: 0x8, addend: 0x0, symName: __ZNKSt3__112basic_stringIcNS_11char_traitsIcEENS_9allocatorIcEEE4sizeB8ue170006Ev, symObjAddr: 0x344, symBinAddr: 0x1000030CC, symSize: 0x54 }
  - { offsetInCU: 0x9B31, offset: 0x9B31, size: 0x8, addend: 0x0, symName: __ZNSt3__112basic_stringIcNS_11char_traitsIcEENS_9allocatorIcEEEixB8ue170006Em, symObjAddr: 0x398, symBinAddr: 0x100003120, symSize: 0x30 }
  - { offsetInCU: 0x9B65, offset: 0x9B65, size: 0x8, addend: 0x0, symName: __ZNKSt3__18ios_base3eofB8ue170006Ev, symObjAddr: 0x3C8, symBinAddr: 0x100003150, symSize: 0x24 }
  - { offsetInCU: 0x9B8C, offset: 0x9B8C, size: 0x8, addend: 0x0, symName: __ZNSt3__16vectorIcNS_9allocatorIcEEE9__end_capB8ue170006Ev, symObjAddr: 0x3EC, symBinAddr: 0x100003174, symSize: 0x28 }
  - { offsetInCU: 0x9BB1, offset: 0x9BB1, size: 0x8, addend: 0x0, symName: __ZNSt3__16vectorIcNS_9allocatorIcEEE22__construct_one_at_endB8ue170006IJRKcEEEvDpOT_, symObjAddr: 0x414, symBinAddr: 0x10000319C, symSize: 0x98 }
  - { offsetInCU: 0x9BFF, offset: 0x9BFF, size: 0x8, addend: 0x0, symName: __ZNSt3__16vectorIcNS_9allocatorIcEEE21__push_back_slow_pathIRKcEEvOT_, symObjAddr: 0x4AC, symBinAddr: 0x100003234, symSize: 0xE0 }
  - { offsetInCU: 0x9C5E, offset: 0x9C5E, size: 0x8, addend: 0x0, symName: __ZNSt3__117__compressed_pairIPcNS_9allocatorIcEEE5firstB8ue170006Ev, symObjAddr: 0x58C, symBinAddr: 0x100003314, symSize: 0x24 }
  - { offsetInCU: 0x9C83, offset: 0x9C83, size: 0x8, addend: 0x0, symName: __ZNSt3__122__compressed_pair_elemIPcLi0ELb0EE5__getB8ue170006Ev, symObjAddr: 0x5B0, symBinAddr: 0x100003338, symSize: 0x14 }
  - { offsetInCU: 0x9CC1, offset: 0x9CC1, size: 0x8, addend: 0x0, symName: __ZNSt3__16vectorIcNS_9allocatorIcEEE21_ConstructTransactionC1B8ue170006ERS3_m, symObjAddr: 0x5C4, symBinAddr: 0x10000334C, symSize: 0x3C }
  - { offsetInCU: 0x9D08, offset: 0x9D08, size: 0x8, addend: 0x0, symName: __ZNSt3__116allocator_traitsINS_9allocatorIcEEE9constructB8ue170006IcJRKcEvEEvRS2_PT_DpOT0_, symObjAddr: 0x600, symBinAddr: 0x100003388, symSize: 0x34 }
  - { offsetInCU: 0x9D5F, offset: 0x9D5F, size: 0x8, addend: 0x0, symName: __ZNSt3__16vectorIcNS_9allocatorIcEEE7__allocB8ue170006Ev, symObjAddr: 0x634, symBinAddr: 0x1000033BC, symSize: 0x28 }
  - { offsetInCU: 0x9D84, offset: 0x9D84, size: 0x8, addend: 0x0, symName: __ZNSt3__16vectorIcNS_9allocatorIcEEE21_ConstructTransactionD1B8ue170006Ev, symObjAddr: 0x670, symBinAddr: 0x1000033F8, symSize: 0x2C }
  - { offsetInCU: 0x9DAD, offset: 0x9DAD, size: 0x8, addend: 0x0, symName: __ZNSt3__16vectorIcNS_9allocatorIcEEE21_ConstructTransactionC2B8ue170006ERS3_m, symObjAddr: 0x6A8, symBinAddr: 0x100003430, symSize: 0x44 }
  - { offsetInCU: 0x9DF4, offset: 0x9DF4, size: 0x8, addend: 0x0, symName: __ZNSt3__19allocatorIcE9constructB8ue170006IcJRKcEEEvPT_DpOT0_, symObjAddr: 0x6EC, symBinAddr: 0x100003474, symSize: 0x28 }
  - { offsetInCU: 0x9E49, offset: 0x9E49, size: 0x8, addend: 0x0, symName: __ZNSt3__117__compressed_pairIPcNS_9allocatorIcEEE6secondB8ue170006Ev, symObjAddr: 0x714, symBinAddr: 0x10000349C, symSize: 0x24 }
  - { offsetInCU: 0x9E6E, offset: 0x9E6E, size: 0x8, addend: 0x0, symName: __ZNSt3__122__compressed_pair_elemINS_9allocatorIcEELi1ELb1EE5__getB8ue170006Ev, symObjAddr: 0x738, symBinAddr: 0x1000034C0, symSize: 0x14 }
  - { offsetInCU: 0x9E93, offset: 0x9E93, size: 0x8, addend: 0x0, symName: __ZNSt3__16vectorIcNS_9allocatorIcEEE21_ConstructTransactionD2B8ue170006Ev, symObjAddr: 0x74C, symBinAddr: 0x1000034D4, symSize: 0x20 }
  - { offsetInCU: 0x9EBB, offset: 0x9EBB, size: 0x8, addend: 0x0, symName: __ZNKSt3__16vectorIcNS_9allocatorIcEEE11__recommendB8ue170006Em, symObjAddr: 0x76C, symBinAddr: 0x1000034F4, symSize: 0xB4 }
  - { offsetInCU: 0x9F11, offset: 0x9F11, size: 0x8, addend: 0x0, symName: __ZNKSt3__16vectorIcNS_9allocatorIcEEE4sizeB8ue170006Ev, symObjAddr: 0x820, symBinAddr: 0x1000035A8, symSize: 0x20 }
  - { offsetInCU: 0x9F36, offset: 0x9F36, size: 0x8, addend: 0x0, symName: __ZNSt3__114__split_bufferIcRNS_9allocatorIcEEEC1EmmS3_, symObjAddr: 0x840, symBinAddr: 0x1000035C8, symSize: 0x44 }
  - { offsetInCU: 0x9F8B, offset: 0x9F8B, size: 0x8, addend: 0x0, symName: __ZNSt3__114__split_bufferIcRNS_9allocatorIcEEED1Ev, symObjAddr: 0x994, symBinAddr: 0x10000371C, symSize: 0x2C }
  - { offsetInCU: 0x9FB5, offset: 0x9FB5, size: 0x8, addend: 0x0, symName: __ZNKSt3__16vectorIcNS_9allocatorIcEEE8max_sizeEv, symObjAddr: 0x9C0, symBinAddr: 0x100003748, symSize: 0x74 }
  - { offsetInCU: 0x9FDC, offset: 0x9FDC, size: 0x8, addend: 0x0, symName: __ZNKSt3__16vectorIcNS_9allocatorIcEEE20__throw_length_errorB8ue170006Ev, symObjAddr: 0xA34, symBinAddr: 0x1000037BC, symSize: 0x1C }
  - { offsetInCU: 0xA001, offset: 0xA001, size: 0x8, addend: 0x0, symName: __ZNKSt3__16vectorIcNS_9allocatorIcEEE8capacityB8ue170006Ev, symObjAddr: 0xA50, symBinAddr: 0x1000037D8, symSize: 0x38 }
  - { offsetInCU: 0xA030, offset: 0xA030, size: 0x8, addend: 0x0, symName: __ZNSt3__116allocator_traitsINS_9allocatorIcEEE8max_sizeB8ue170006IS2_vEEmRKS2_, symObjAddr: 0xAE0, symBinAddr: 0x100003868, symSize: 0x24 }
  - { offsetInCU: 0xA05E, offset: 0xA05E, size: 0x8, addend: 0x0, symName: __ZNKSt3__16vectorIcNS_9allocatorIcEEE7__allocB8ue170006Ev, symObjAddr: 0xB04, symBinAddr: 0x10000388C, symSize: 0x28 }
  - { offsetInCU: 0xA083, offset: 0xA083, size: 0x8, addend: 0x0, symName: __ZNSt3__114numeric_limitsIlE3maxB8ue170006Ev, symObjAddr: 0xB2C, symBinAddr: 0x1000038B4, symSize: 0x14 }
  - { offsetInCU: 0xA0AB, offset: 0xA0AB, size: 0x8, addend: 0x0, symName: __ZNKSt3__16__lessIvvEclB8ue170006ImmEEbRKT_RKT0_, symObjAddr: 0xB94, symBinAddr: 0x10000391C, symSize: 0x34 }
  - { offsetInCU: 0xA0FE, offset: 0xA0FE, size: 0x8, addend: 0x0, symName: __ZNKSt3__19allocatorIcE8max_sizeB8ue170006Ev, symObjAddr: 0xBC8, symBinAddr: 0x100003950, symSize: 0x14 }
  - { offsetInCU: 0xA123, offset: 0xA123, size: 0x8, addend: 0x0, symName: __ZNKSt3__117__compressed_pairIPcNS_9allocatorIcEEE6secondB8ue170006Ev, symObjAddr: 0xBDC, symBinAddr: 0x100003964, symSize: 0x24 }
  - { offsetInCU: 0xA148, offset: 0xA148, size: 0x8, addend: 0x0, symName: __ZNKSt3__122__compressed_pair_elemINS_9allocatorIcEELi1ELb1EE5__getB8ue170006Ev, symObjAddr: 0xC00, symBinAddr: 0x100003988, symSize: 0x14 }
  - { offsetInCU: 0xA16D, offset: 0xA16D, size: 0x8, addend: 0x0, symName: __ZNSt3__123__libcpp_numeric_limitsIlLb1EE3maxB8ue170006Ev, symObjAddr: 0xC14, symBinAddr: 0x10000399C, symSize: 0x8 }
  - { offsetInCU: 0xA181, offset: 0xA181, size: 0x8, addend: 0x0, symName: __ZNSt12length_errorC1B8ue170006EPKc, symObjAddr: 0xC80, symBinAddr: 0x100003A08, symSize: 0x34 }
  - { offsetInCU: 0xA1B8, offset: 0xA1B8, size: 0x8, addend: 0x0, symName: __ZNSt12length_errorC2B8ue170006EPKc, symObjAddr: 0xCB4, symBinAddr: 0x100003A3C, symSize: 0x4C }
  - { offsetInCU: 0xA1EF, offset: 0xA1EF, size: 0x8, addend: 0x0, symName: __ZNKSt3__16vectorIcNS_9allocatorIcEEE9__end_capB8ue170006Ev, symObjAddr: 0xD00, symBinAddr: 0x100003A88, symSize: 0x28 }
  - { offsetInCU: 0xA214, offset: 0xA214, size: 0x8, addend: 0x0, symName: __ZNKSt3__117__compressed_pairIPcNS_9allocatorIcEEE5firstB8ue170006Ev, symObjAddr: 0xD28, symBinAddr: 0x100003AB0, symSize: 0x24 }
  - { offsetInCU: 0xA239, offset: 0xA239, size: 0x8, addend: 0x0, symName: __ZNKSt3__122__compressed_pair_elemIPcLi0ELb0EE5__getB8ue170006Ev, symObjAddr: 0xD4C, symBinAddr: 0x100003AD4, symSize: 0x14 }
  - { offsetInCU: 0xA25E, offset: 0xA25E, size: 0x8, addend: 0x0, symName: __ZNSt3__114__split_bufferIcRNS_9allocatorIcEEEC2EmmS3_, symObjAddr: 0xDB4, symBinAddr: 0x100003B3C, symSize: 0xD4 }
  - { offsetInCU: 0xA2D7, offset: 0xA2D7, size: 0x8, addend: 0x0, symName: __ZNSt3__117__compressed_pairIPcRNS_9allocatorIcEEEC1B8ue170006IDnS4_EEOT_OT0_, symObjAddr: 0xE88, symBinAddr: 0x100003C10, symSize: 0x3C }
  - { offsetInCU: 0xA32E, offset: 0xA32E, size: 0x8, addend: 0x0, symName: __ZNSt3__114__split_bufferIcRNS_9allocatorIcEEE7__allocB8ue170006Ev, symObjAddr: 0xF04, symBinAddr: 0x100003C8C, symSize: 0x28 }
  - { offsetInCU: 0xA353, offset: 0xA353, size: 0x8, addend: 0x0, symName: __ZNSt3__114__split_bufferIcRNS_9allocatorIcEEE9__end_capB8ue170006Ev, symObjAddr: 0xF2C, symBinAddr: 0x100003CB4, symSize: 0x28 }
  - { offsetInCU: 0xA378, offset: 0xA378, size: 0x8, addend: 0x0, symName: __ZNSt3__117__compressed_pairIPcRNS_9allocatorIcEEEC2B8ue170006IDnS4_EEOT_OT0_, symObjAddr: 0xF54, symBinAddr: 0x100003CDC, symSize: 0x48 }
  - { offsetInCU: 0xA3CF, offset: 0xA3CF, size: 0x8, addend: 0x0, symName: __ZNSt3__122__compressed_pair_elemIPcLi0ELb0EEC2B8ue170006IDnvEEOT_, symObjAddr: 0xF9C, symBinAddr: 0x100003D24, symSize: 0x1C }
  - { offsetInCU: 0xA410, offset: 0xA410, size: 0x8, addend: 0x0, symName: __ZNSt3__122__compressed_pair_elemIRNS_9allocatorIcEELi1ELb0EEC2B8ue170006IS3_vEEOT_, symObjAddr: 0xFB8, symBinAddr: 0x100003D40, symSize: 0x20 }
  - { offsetInCU: 0xA451, offset: 0xA451, size: 0x8, addend: 0x0, symName: __ZNSt3__19allocatorIcE8allocateB8ue170006Em, symObjAddr: 0xFD8, symBinAddr: 0x100003D60, symSize: 0x84 }
  - { offsetInCU: 0xA484, offset: 0xA484, size: 0x8, addend: 0x0, symName: __ZNSt3__117__compressed_pairIPcRNS_9allocatorIcEEE6secondB8ue170006Ev, symObjAddr: 0x10E8, symBinAddr: 0x100003E70, symSize: 0x28 }
  - { offsetInCU: 0xA4A9, offset: 0xA4A9, size: 0x8, addend: 0x0, symName: __ZNSt3__122__compressed_pair_elemIRNS_9allocatorIcEELi1ELb0EE5__getB8ue170006Ev, symObjAddr: 0x1110, symBinAddr: 0x100003E98, symSize: 0x18 }
  - { offsetInCU: 0xA4CE, offset: 0xA4CE, size: 0x8, addend: 0x0, symName: __ZNSt3__117__compressed_pairIPcRNS_9allocatorIcEEE5firstB8ue170006Ev, symObjAddr: 0x1128, symBinAddr: 0x100003EB0, symSize: 0x24 }
  - { offsetInCU: 0xA4F3, offset: 0xA4F3, size: 0x8, addend: 0x0, symName: __ZNKSt3__16vectorIcNS_9allocatorIcEEE17__annotate_deleteB8ue170006Ev, symObjAddr: 0x114C, symBinAddr: 0x100003ED4, symSize: 0xB8 }
  - { offsetInCU: 0xA518, offset: 0xA518, size: 0x8, addend: 0x0, symName: __ZNSt3__116reverse_iteratorIPcEC1B8ue170006ES1_, symObjAddr: 0x12EC, symBinAddr: 0x100004074, symSize: 0x34 }
  - { offsetInCU: 0xA54F, offset: 0xA54F, size: 0x8, addend: 0x0, symName: __ZNKSt3__116reverse_iteratorIPcE4baseB8ue170006Ev, symObjAddr: 0x1320, symBinAddr: 0x1000040A8, symSize: 0x18 }
  - { offsetInCU: 0xA574, offset: 0xA574, size: 0x8, addend: 0x0, symName: __ZNKSt3__16vectorIcNS_9allocatorIcEEE14__annotate_newB8ue170006Em, symObjAddr: 0x1374, symBinAddr: 0x1000040FC, symSize: 0xAC }
  - { offsetInCU: 0xA5A8, offset: 0xA5A8, size: 0x8, addend: 0x0, symName: __ZNKSt3__16vectorIcNS_9allocatorIcEEE31__annotate_contiguous_containerB8ue170006EPKvS5_S5_S5_, symObjAddr: 0x1420, symBinAddr: 0x1000041A8, symSize: 0x20 }
  - { offsetInCU: 0xA5F9, offset: 0xA5F9, size: 0x8, addend: 0x0, symName: __ZNKSt3__16vectorIcNS_9allocatorIcEEE4dataB8ue170006Ev, symObjAddr: 0x1440, symBinAddr: 0x1000041C8, symSize: 0x28 }
  - { offsetInCU: 0xA61E, offset: 0xA61E, size: 0x8, addend: 0x0, symName: __ZNKSt3__116reverse_iteratorIPcEdeB8ue170006Ev, symObjAddr: 0x1500, symBinAddr: 0x100004288, symSize: 0x28 }
  - { offsetInCU: 0xA651, offset: 0xA651, size: 0x8, addend: 0x0, symName: __ZNSt3__116reverse_iteratorIPcEppB8ue170006Ev, symObjAddr: 0x1528, symBinAddr: 0x1000042B0, symSize: 0x20 }
  - { offsetInCU: 0xA67B, offset: 0xA67B, size: 0x8, addend: 0x0, symName: __ZNSt3__119__to_address_helperINS_16reverse_iteratorIPcEEvE6__callB8ue170006ERKS3_, symObjAddr: 0x15C0, symBinAddr: 0x100004348, symSize: 0x4C }
  - { offsetInCU: 0xA69E, offset: 0xA69E, size: 0x8, addend: 0x0, symName: __ZNKSt3__116reverse_iteratorIPcEptB8ue170006Ev, symObjAddr: 0x160C, symBinAddr: 0x100004394, symSize: 0x24 }
  - { offsetInCU: 0xA6E6, offset: 0xA6E6, size: 0x8, addend: 0x0, symName: __ZNKSt3__111__move_loopINS_17_ClassicAlgPolicyEEclB8ue170006INS_16reverse_iteratorIPcEES6_S6_EENS_4pairIT_T1_EES8_T0_S9_, symObjAddr: 0x18A8, symBinAddr: 0x100004630, symSize: 0xA0 }
  - { offsetInCU: 0xA755, offset: 0xA755, size: 0x8, addend: 0x0, symName: __ZNSt3__18_IterOpsINS_17_ClassicAlgPolicyEE11__iter_moveB8ue170006IRNS_16reverse_iteratorIPcEEEENS_9enable_ifIXsr12is_referenceIDTdeclsr3stdE7declvalIRT_EEEEE5valueEDTclsr3stdE4movedeclsr3stdE7declvalISA_EEEEE4typeEOS9_, symObjAddr: 0x1AA8, symBinAddr: 0x100004830, symSize: 0x28 }
  - { offsetInCU: 0xA781, offset: 0xA781, size: 0x8, addend: 0x0, symName: __ZNSt3__18_IterOpsINS_17_ClassicAlgPolicyEE25__validate_iter_referenceB8ue170006IRNS_16reverse_iteratorIPcEEEEvv, symObjAddr: 0x1AD0, symBinAddr: 0x100004858, symSize: 0x4 }
  - { offsetInCU: 0xA79F, offset: 0xA79F, size: 0x8, addend: 0x0, symName: __ZNSt3__118__unwrap_iter_implINS_16reverse_iteratorIPcEELb0EE8__unwrapB8ue170006ES3_, symObjAddr: 0x1AD4, symBinAddr: 0x10000485C, symSize: 0x24 }
  - { offsetInCU: 0xA7C2, offset: 0xA7C2, size: 0x8, addend: 0x0, symName: __ZNSt3__14pairINS_16reverse_iteratorIPcEES3_EC1B8ue170006ERKS3_S6_, symObjAddr: 0x1AF8, symBinAddr: 0x100004880, symSize: 0x3C }
  - { offsetInCU: 0xA807, offset: 0xA807, size: 0x8, addend: 0x0, symName: __ZNSt3__14pairINS_16reverse_iteratorIPcEES3_EC2B8ue170006ERKS3_S6_, symObjAddr: 0x1B34, symBinAddr: 0x1000048BC, symSize: 0x34 }
  - { offsetInCU: 0xA84C, offset: 0xA84C, size: 0x8, addend: 0x0, symName: __ZNSt3__118__unwrap_iter_implINS_16reverse_iteratorIPcEELb0EE8__rewrapB8ue170006ES3_S3_, symObjAddr: 0x1B68, symBinAddr: 0x1000048F0, symSize: 0x2C }
  - { offsetInCU: 0xA87A, offset: 0xA87A, size: 0x8, addend: 0x0, symName: __ZNSt3__116reverse_iteratorIPcEC2B8ue170006ES1_, symObjAddr: 0x1B94, symBinAddr: 0x10000491C, symSize: 0x28 }
  - { offsetInCU: 0xA8B1, offset: 0xA8B1, size: 0x8, addend: 0x0, symName: __ZNSt3__114__split_bufferIcRNS_9allocatorIcEEED2Ev, symObjAddr: 0x1BBC, symBinAddr: 0x100004944, symSize: 0x80 }
  - { offsetInCU: 0xA8DC, offset: 0xA8DC, size: 0x8, addend: 0x0, symName: __ZNSt3__114__split_bufferIcRNS_9allocatorIcEEE5clearB8ue170006Ev, symObjAddr: 0x1C3C, symBinAddr: 0x1000049C4, symSize: 0x28 }
  - { offsetInCU: 0xA901, offset: 0xA901, size: 0x8, addend: 0x0, symName: __ZNSt3__116allocator_traitsINS_9allocatorIcEEE10deallocateB8ue170006ERS2_Pcm, symObjAddr: 0x1C64, symBinAddr: 0x1000049EC, symSize: 0x34 }
  - { offsetInCU: 0xA943, offset: 0xA943, size: 0x8, addend: 0x0, symName: __ZNKSt3__114__split_bufferIcRNS_9allocatorIcEEE8capacityB8ue170006Ev, symObjAddr: 0x1C98, symBinAddr: 0x100004A20, symSize: 0x38 }
  - { offsetInCU: 0xA968, offset: 0xA968, size: 0x8, addend: 0x0, symName: __ZNSt3__114__split_bufferIcRNS_9allocatorIcEEE17__destruct_at_endB8ue170006EPc, symObjAddr: 0x1CD0, symBinAddr: 0x100004A58, symSize: 0x2C }
  - { offsetInCU: 0xA99A, offset: 0xA99A, size: 0x8, addend: 0x0, symName: __ZNSt3__114__split_bufferIcRNS_9allocatorIcEEE17__destruct_at_endB8ue170006EPcNS_17integral_constantIbLb0EEE, symObjAddr: 0x1CFC, symBinAddr: 0x100004A84, symSize: 0x94 }
  - { offsetInCU: 0xA9DA, offset: 0xA9DA, size: 0x8, addend: 0x0, symName: __ZNSt3__116allocator_traitsINS_9allocatorIcEEE7destroyB8ue170006IcvEEvRS2_PT_, symObjAddr: 0x1D90, symBinAddr: 0x100004B18, symSize: 0x2C }
  - { offsetInCU: 0xAA17, offset: 0xAA17, size: 0x8, addend: 0x0, symName: __ZNSt3__19allocatorIcE7destroyB8ue170006EPc, symObjAddr: 0x1DBC, symBinAddr: 0x100004B44, symSize: 0x14 }
  - { offsetInCU: 0xAA4A, offset: 0xAA4A, size: 0x8, addend: 0x0, symName: __ZNSt3__19allocatorIcE10deallocateB8ue170006EPcm, symObjAddr: 0x1DD0, symBinAddr: 0x100004B58, symSize: 0x70 }
  - { offsetInCU: 0xAA8B, offset: 0xAA8B, size: 0x8, addend: 0x0, symName: __ZNKSt3__114__split_bufferIcRNS_9allocatorIcEEE9__end_capB8ue170006Ev, symObjAddr: 0x1EBC, symBinAddr: 0x100004C44, symSize: 0x28 }
  - { offsetInCU: 0xAAB0, offset: 0xAAB0, size: 0x8, addend: 0x0, symName: __ZNKSt3__117__compressed_pairIPcRNS_9allocatorIcEEE5firstB8ue170006Ev, symObjAddr: 0x1EE4, symBinAddr: 0x100004C6C, symSize: 0x24 }
  - { offsetInCU: 0xAAD5, offset: 0xAAD5, size: 0x8, addend: 0x0, symName: __ZNSt3__16vectorIcNS_9allocatorIcEEE17__destruct_at_endB8ue170006EPc, symObjAddr: 0x1F08, symBinAddr: 0x100004C90, symSize: 0x4C }
  - { offsetInCU: 0xAB19, offset: 0xAB19, size: 0x8, addend: 0x0, symName: __ZNSt3__16vectorIcNS_9allocatorIcEEE22__base_destruct_at_endB8ue170006EPc, symObjAddr: 0x1F54, symBinAddr: 0x100004CDC, symSize: 0xA0 }
  - { offsetInCU: 0xAB5D, offset: 0xAB5D, size: 0x8, addend: 0x0, symName: __ZNKSt3__16vectorIcNS_9allocatorIcEEE17__annotate_shrinkB8ue170006Em, symObjAddr: 0x1FF4, symBinAddr: 0x100004D7C, symSize: 0xB4 }
  - { offsetInCU: 0xAB91, offset: 0xAB91, size: 0x8, addend: 0x0, symName: __ZNSt3__111char_traitsIcE3eofB8ue170006Ev, symObjAddr: 0x20A8, symBinAddr: 0x100004E30, symSize: 0x8 }
  - { offsetInCU: 0xABA5, offset: 0xABA5, size: 0x8, addend: 0x0, symName: __ZNSt3__111char_traitsIcE12to_char_typeB8ue170006Ei, symObjAddr: 0x20B0, symBinAddr: 0x100004E38, symSize: 0x18 }
  - { offsetInCU: 0xABC8, offset: 0xABC8, size: 0x8, addend: 0x0, symName: __ZNKSt3__112basic_stringIcNS_11char_traitsIcEENS_9allocatorIcEEE9__is_longB8ue170006Ev, symObjAddr: 0x20C8, symBinAddr: 0x100004E50, symSize: 0x74 }
  - { offsetInCU: 0xABED, offset: 0xABED, size: 0x8, addend: 0x0, symName: __ZNKSt3__112basic_stringIcNS_11char_traitsIcEENS_9allocatorIcEEE15__get_long_sizeB8ue170006Ev, symObjAddr: 0x213C, symBinAddr: 0x100004EC4, symSize: 0x28 }
  - { offsetInCU: 0xAC12, offset: 0xAC12, size: 0x8, addend: 0x0, symName: __ZNKSt3__112basic_stringIcNS_11char_traitsIcEENS_9allocatorIcEEE16__get_short_sizeB8ue170006Ev, symObjAddr: 0x2164, symBinAddr: 0x100004EEC, symSize: 0x34 }
  - { offsetInCU: 0xAC37, offset: 0xAC37, size: 0x8, addend: 0x0, symName: __ZNKSt3__117__compressed_pairINS_12basic_stringIcNS_11char_traitsIcEENS_9allocatorIcEEE5__repES5_E5firstB8ue170006Ev, symObjAddr: 0x2198, symBinAddr: 0x100004F20, symSize: 0x24 }
  - { offsetInCU: 0xAC5C, offset: 0xAC5C, size: 0x8, addend: 0x0, symName: __ZNKSt3__122__compressed_pair_elemINS_12basic_stringIcNS_11char_traitsIcEENS_9allocatorIcEEE5__repELi0ELb0EE5__getB8ue170006Ev, symObjAddr: 0x21BC, symBinAddr: 0x100004F44, symSize: 0x14 }
  - { offsetInCU: 0xAC81, offset: 0xAC81, size: 0x8, addend: 0x0, symName: __ZNSt3__112basic_stringIcNS_11char_traitsIcEENS_9allocatorIcEEE13__get_pointerB8ue170006Ev, symObjAddr: 0x21D0, symBinAddr: 0x100004F58, symSize: 0x54 }
  - { offsetInCU: 0xACA6, offset: 0xACA6, size: 0x8, addend: 0x0, symName: __ZNSt3__112basic_stringIcNS_11char_traitsIcEENS_9allocatorIcEEE18__get_long_pointerB8ue170006Ev, symObjAddr: 0x2224, symBinAddr: 0x100004FAC, symSize: 0x28 }
  - { offsetInCU: 0xACCB, offset: 0xACCB, size: 0x8, addend: 0x0, symName: __ZNSt3__112basic_stringIcNS_11char_traitsIcEENS_9allocatorIcEEE19__get_short_pointerB8ue170006Ev, symObjAddr: 0x224C, symBinAddr: 0x100004FD4, symSize: 0x28 }
  - { offsetInCU: 0xACF0, offset: 0xACF0, size: 0x8, addend: 0x0, symName: __ZNSt3__117__compressed_pairINS_12basic_stringIcNS_11char_traitsIcEENS_9allocatorIcEEE5__repES5_E5firstB8ue170006Ev, symObjAddr: 0x2274, symBinAddr: 0x100004FFC, symSize: 0x24 }
  - { offsetInCU: 0xAD15, offset: 0xAD15, size: 0x8, addend: 0x0, symName: __ZNSt3__122__compressed_pair_elemINS_12basic_stringIcNS_11char_traitsIcEENS_9allocatorIcEEE5__repELi0ELb0EE5__getB8ue170006Ev, symObjAddr: 0x2298, symBinAddr: 0x100005020, symSize: 0x14 }
  - { offsetInCU: 0xAD3A, offset: 0xAD3A, size: 0x8, addend: 0x0, symName: __ZNSt3__114pointer_traitsIPcE10pointer_toB8ue170006ERc, symObjAddr: 0x22AC, symBinAddr: 0x100005034, symSize: 0x14 }
  - { offsetInCU: 0x52, offset: 0xAE35, size: 0x8, addend: 0x0, symName: _reserved, symObjAddr: 0x2F538, symBinAddr: 0x100018000, symSize: 0x0 }
  - { offsetInCU: 0x3373, offset: 0xE156, size: 0x8, addend: 0x0, symName: __ZNSt3__124__put_character_sequenceB8ue170006IcNS_11char_traitsIcEEEERNS_13basic_ostreamIT_T0_EES7_PKS4_m, symObjAddr: 0x2288, symBinAddr: 0x100006CFC, symSize: 0x1F4 }
  - { offsetInCU: 0x675A, offset: 0x1153D, size: 0x8, addend: 0x0, symName: __ZNSt3__1lsB8ue170006INS_11char_traitsIcEEEERNS_13basic_ostreamIcT_EES6_PKc, symObjAddr: 0xD0, symBinAddr: 0x10000510C, symSize: 0x48 }
  - { offsetInCU: 0x67A0, offset: 0x11583, size: 0x8, addend: 0x0, symName: __ZNSt3__1lsB8ue170006IcNS_11char_traitsIcEENS_9allocatorIcEEEERNS_13basic_ostreamIT_T0_EES9_RKNS_12basic_stringIS6_S7_T1_EE, symObjAddr: 0x118, symBinAddr: 0x100005154, symSize: 0x4C }
  - { offsetInCU: 0x67F8, offset: 0x115DB, size: 0x8, addend: 0x0, symName: __ZNSt3__1eqB8ue170006INS_9allocatorIcEEEEbRKNS_12basic_stringIcNS_11char_traitsIcEET_EES9_, symObjAddr: 0xA30, symBinAddr: 0x100005A6C, symSize: 0x148 }
  - { offsetInCU: 0x686E, offset: 0x11651, size: 0x8, addend: 0x0, symName: __ZNSt3__118__constexpr_strlenB8ue170006EPKc, symObjAddr: 0x2264, symBinAddr: 0x100006CD8, symSize: 0x24 }
  - { offsetInCU: 0x689A, offset: 0x1167D, size: 0x8, addend: 0x0, symName: __ZNSt3__116__pad_and_outputB8ue170006IcNS_11char_traitsIcEEEENS_19ostreambuf_iteratorIT_T0_EES6_PKS4_S8_S8_RNS_8ios_baseES4_, symObjAddr: 0x2498, symBinAddr: 0x100006F0C, symSize: 0x248 }
  - { offsetInCU: 0x696E, offset: 0x11751, size: 0x8, addend: 0x0, symName: __ZNSt3__112__to_addressB8ue170006IKcEEPT_S3_, symObjAddr: 0x2910, symBinAddr: 0x100007384, symSize: 0x14 }
  - { offsetInCU: 0x69D6, offset: 0x117B9, size: 0x8, addend: 0x0, symName: __ZNSt3__19use_facetB8ue170006INS_5ctypeIcEEEERKT_RKNS_6localeE, symObjAddr: 0x2BE8, symBinAddr: 0x1000075A8, symSize: 0x2C }
  - { offsetInCU: 0x6EA4, offset: 0x11C87, size: 0x8, addend: 0x0, symName: __ZNSt3__112__to_addressB8ue170006I5TokenEEPT_S3_, symObjAddr: 0x31E0, symBinAddr: 0x100007AF0, symSize: 0x14 }
  - { offsetInCU: 0x6ED9, offset: 0x11CBC, size: 0x8, addend: 0x0, symName: __ZNSt3__119__allocate_at_leastB8ue170006INS_9allocatorI5TokenEEEENS_19__allocation_resultINS_16allocator_traitsIT_E7pointerEEERS6_m, symObjAddr: 0x3D14, symBinAddr: 0x1000083F0, symSize: 0x40 }
  - { offsetInCU: 0x6F1C, offset: 0x11CFF, size: 0x8, addend: 0x0, symName: __ZNSt3__142__uninitialized_allocator_move_if_noexceptB8ue170006INS_9allocatorI5TokenEENS_16reverse_iteratorIPS2_EES6_S6_EET2_RT_T0_T1_S7_, symObjAddr: 0x3EF4, symBinAddr: 0x1000085D0, symSize: 0x134 }
  - { offsetInCU: 0x6FBE, offset: 0x11DA1, size: 0x8, addend: 0x0, symName: __ZNSt3__14swapB8ue170006IP5TokenEEvRT_S4_, symObjAddr: 0x4074, symBinAddr: 0x100008750, symSize: 0x3C }
  - { offsetInCU: 0x700F, offset: 0x11DF2, size: 0x8, addend: 0x0, symName: __ZNSt3__122__make_exception_guardB8ue170006INS_29_AllocatorDestroyRangeReverseINS_9allocatorI5TokenEENS_16reverse_iteratorIPS3_EEEEEENS_28__exception_guard_exceptionsIT_EESA_, symObjAddr: 0x415C, symBinAddr: 0x100008838, symSize: 0x4C }
  - { offsetInCU: 0x7045, offset: 0x11E28, size: 0x8, addend: 0x0, symName: __ZNSt3__1neB8ue170006IP5TokenS2_EEbRKNS_16reverse_iteratorIT_EERKNS3_IT0_EE, symObjAddr: 0x41EC, symBinAddr: 0x1000088C8, symSize: 0x48 }
  - { offsetInCU: 0x7091, offset: 0x11E74, size: 0x8, addend: 0x0, symName: __ZNSt3__112__to_addressB8ue170006INS_16reverse_iteratorIP5TokenEEvEEu7__decayIDTclsr19__to_address_helperIT_EE6__callclsr3stdE7declvalIRKS5_EEEEES7_, symObjAddr: 0x4234, symBinAddr: 0x100008910, symSize: 0x24 }
  - { offsetInCU: 0x70F0, offset: 0x11ED3, size: 0x8, addend: 0x0, symName: __ZNSt3__119__allocator_destroyB8ue170006INS_9allocatorI5TokenEENS_16reverse_iteratorINS4_IPS2_EEEES7_EEvRT_T0_T1_, symObjAddr: 0x44F0, symBinAddr: 0x100008BCC, symSize: 0x70 }
  - { offsetInCU: 0x7155, offset: 0x11F38, size: 0x8, addend: 0x0, symName: __ZNSt3__1neB8ue170006INS_16reverse_iteratorIP5TokenEES4_EEbRKNS1_IT_EERKNS1_IT0_EE, symObjAddr: 0x459C, symBinAddr: 0x100008C78, symSize: 0x60 }
  - { offsetInCU: 0x71A1, offset: 0x11F84, size: 0x8, addend: 0x0, symName: __ZNSt3__112__to_addressB8ue170006INS_16reverse_iteratorINS1_IP5TokenEEEEvEEu7__decayIDTclsr19__to_address_helperIT_EE6__callclsr3stdE7declvalIRKS6_EEEEES8_, symObjAddr: 0x45FC, symBinAddr: 0x100008CD8, symSize: 0x24 }
  - { offsetInCU: 0x7353, offset: 0x12136, size: 0x8, addend: 0x0, symName: _keyword, symObjAddr: 0x2F6E8, symBinAddr: 0x1000181B0, symSize: 0x0 }
  - { offsetInCU: 0x7845, offset: 0x12628, size: 0x8, addend: 0x0, symName: __ZNSt3__16vectorI5TokenNS_9allocatorIS1_EEE26__swap_out_circular_bufferERNS_14__split_bufferIS1_RS3_EE, symObjAddr: 0x376C, symBinAddr: 0x10000807C, symSize: 0x110 }
  - { offsetInCU: 0x7E26, offset: 0x12C09, size: 0x8, addend: 0x0, symName: __Z7isalnumi, symObjAddr: 0x1064, symBinAddr: 0x1000060A0, symSize: 0x28 }
  - { offsetInCU: 0x7E52, offset: 0x12C35, size: 0x8, addend: 0x0, symName: __Z7isalphai, symObjAddr: 0x103C, symBinAddr: 0x100006078, symSize: 0x28 }
  - { offsetInCU: 0x7EA8, offset: 0x12C8B, size: 0x8, addend: 0x0, symName: __Z7isdigiti, symObjAddr: 0xDC4, symBinAddr: 0x100005E00, symSize: 0x28 }
  - { offsetInCU: 0x7F29, offset: 0x12D0C, size: 0x8, addend: 0x0, symName: __Z7isspacei, symObjAddr: 0x95C, symBinAddr: 0x100005998, symSize: 0x28 }
  - { offsetInCU: 0x9714, offset: 0x144F7, size: 0x8, addend: 0x0, symName: __ZNSt3__112basic_stringIcNS_11char_traitsIcEENS_9allocatorIcEEEC1B8ue170006ILi0EEEPKc, symObjAddr: 0x0, symBinAddr: 0x100005048, symSize: 0x34 }
  - { offsetInCU: 0x9752, offset: 0x14535, size: 0x8, addend: 0x0, symName: __ZN5Token5PrintEv, symObjAddr: 0x40, symBinAddr: 0x10000507C, symSize: 0x90 }
  - { offsetInCU: 0x9922, offset: 0x14705, size: 0x8, addend: 0x0, symName: __ZN15LexicalAnalyzerC2Ev, symObjAddr: 0x164, symBinAddr: 0x1000051A0, symSize: 0x1B0 }
  - { offsetInCU: 0x9963, offset: 0x14746, size: 0x8, addend: 0x0, symName: __ZNSt3__16vectorI5TokenNS_9allocatorIS1_EEEC1B8ue170006Ev, symObjAddr: 0x314, symBinAddr: 0x100005350, symSize: 0x2C }
  - { offsetInCU: 0x998C, offset: 0x1476F, size: 0x8, addend: 0x0, symName: __ZN5TokenC1Ev, symObjAddr: 0x340, symBinAddr: 0x10000537C, symSize: 0x2C }
  - { offsetInCU: 0x99B7, offset: 0x1479A, size: 0x8, addend: 0x0, symName: __ZN11InputBufferC1Ev, symObjAddr: 0x36C, symBinAddr: 0x1000053A8, symSize: 0x2C }
  - { offsetInCU: 0x99E2, offset: 0x147C5, size: 0x8, addend: 0x0, symName: __ZNSt3__112basic_stringIcNS_11char_traitsIcEENS_9allocatorIcEEEaSB8ue170006EPKc, symObjAddr: 0x398, symBinAddr: 0x1000053D4, symSize: 0x2C }
  - { offsetInCU: 0x9A16, offset: 0x147F9, size: 0x8, addend: 0x0, symName: __ZN15LexicalAnalyzer12GetTokenMainEv, symObjAddr: 0x3C4, symBinAddr: 0x100005400, symSize: 0x25C }
  - { offsetInCU: 0x9A4A, offset: 0x1482D, size: 0x8, addend: 0x0, symName: __ZNSt3__16vectorI5TokenNS_9allocatorIS1_EEE9push_backB8ue170006ERKS1_, symObjAddr: 0x6FC, symBinAddr: 0x100005738, symSize: 0x6C }
  - { offsetInCU: 0x9A80, offset: 0x14863, size: 0x8, addend: 0x0, symName: __ZN5TokenaSERKS_, symObjAddr: 0x768, symBinAddr: 0x1000057A4, symSize: 0x40 }
  - { offsetInCU: 0x9AB0, offset: 0x14893, size: 0x8, addend: 0x0, symName: __ZN5TokenD1Ev, symObjAddr: 0x7A8, symBinAddr: 0x1000057E4, symSize: 0x2C }
  - { offsetInCU: 0x9ADB, offset: 0x148BE, size: 0x8, addend: 0x0, symName: __ZN11InputBufferD1Ev, symObjAddr: 0x7D4, symBinAddr: 0x100005810, symSize: 0x2C }
  - { offsetInCU: 0x9B06, offset: 0x148E9, size: 0x8, addend: 0x0, symName: __ZNSt3__16vectorI5TokenNS_9allocatorIS1_EEED1B8ue170006Ev, symObjAddr: 0x800, symBinAddr: 0x10000583C, symSize: 0x2C }
  - { offsetInCU: 0x9B2F, offset: 0x14912, size: 0x8, addend: 0x0, symName: __ZN15LexicalAnalyzerC1Ev, symObjAddr: 0x82C, symBinAddr: 0x100005868, symSize: 0x2C }
  - { offsetInCU: 0x9B5A, offset: 0x1493D, size: 0x8, addend: 0x0, symName: __ZN15LexicalAnalyzer9SkipSpaceEv, symObjAddr: 0x858, symBinAddr: 0x100005894, symSize: 0x104 }
  - { offsetInCU: 0x9B9D, offset: 0x14980, size: 0x8, addend: 0x0, symName: __ZN15LexicalAnalyzer9IsKeywordENSt3__112basic_stringIcNS0_11char_traitsIcEENS0_9allocatorIcEEEE, symObjAddr: 0x984, symBinAddr: 0x1000059C0, symSize: 0xAC }
  - { offsetInCU: 0x9BF0, offset: 0x149D3, size: 0x8, addend: 0x0, symName: __ZN15LexicalAnalyzer16FindKeywordIndexENSt3__112basic_stringIcNS0_11char_traitsIcEENS0_9allocatorIcEEEE, symObjAddr: 0xB78, symBinAddr: 0x100005BB4, symSize: 0x9C }
  - { offsetInCU: 0x9C43, offset: 0x14A26, size: 0x8, addend: 0x0, symName: __ZN15LexicalAnalyzer10ScanNumberEv, symObjAddr: 0xC14, symBinAddr: 0x100005C50, symSize: 0x1B0 }
  - { offsetInCU: 0x9C78, offset: 0x14A5B, size: 0x8, addend: 0x0, symName: __ZNSt3__112basic_stringIcNS_11char_traitsIcEENS_9allocatorIcEEEpLB8ue170006Ec, symObjAddr: 0xDEC, symBinAddr: 0x100005E28, symSize: 0x34 }
  - { offsetInCU: 0x9CAC, offset: 0x14A8F, size: 0x8, addend: 0x0, symName: __ZN5TokenC1ERKS_, symObjAddr: 0xE20, symBinAddr: 0x100005E5C, symSize: 0x34 }
  - { offsetInCU: 0x9CE0, offset: 0x14AC3, size: 0x8, addend: 0x0, symName: __ZN15LexicalAnalyzer15ScanIdOrKeywordEv, symObjAddr: 0xE54, symBinAddr: 0x100005E90, symSize: 0x1E8 }
  - { offsetInCU: 0x9D15, offset: 0x14AF8, size: 0x8, addend: 0x0, symName: __ZN15LexicalAnalyzer8GetTokenEv, symObjAddr: 0x108C, symBinAddr: 0x1000060C8, symSize: 0x124 }
  - { offsetInCU: 0x9D4B, offset: 0x14B2E, size: 0x8, addend: 0x0, symName: __ZNKSt3__16vectorI5TokenNS_9allocatorIS1_EEE4sizeB8ue170006Ev, symObjAddr: 0x11B0, symBinAddr: 0x1000061EC, symSize: 0x28 }
  - { offsetInCU: 0x9D70, offset: 0x14B53, size: 0x8, addend: 0x0, symName: __ZNSt3__16vectorI5TokenNS_9allocatorIS1_EEEixB8ue170006Em, symObjAddr: 0x11D8, symBinAddr: 0x100006214, symSize: 0x24 }
  - { offsetInCU: 0x9DA6, offset: 0x14B89, size: 0x8, addend: 0x0, symName: __ZN15LexicalAnalyzer4peekEi, symObjAddr: 0x11FC, symBinAddr: 0x100006238, symSize: 0x150 }
  - { offsetInCU: 0x9DFF, offset: 0x14BE2, size: 0x8, addend: 0x0, symName: __ZN5TokenC2Ev, symObjAddr: 0x134C, symBinAddr: 0x100006388, symSize: 0x2C }
  - { offsetInCU: 0x9E2A, offset: 0x14C0D, size: 0x8, addend: 0x0, symName: __ZNSt3__112basic_stringIcNS_11char_traitsIcEENS_9allocatorIcEEEC1B8ue170006Ev, symObjAddr: 0x1378, symBinAddr: 0x1000063B4, symSize: 0x2C }
  - { offsetInCU: 0x9E53, offset: 0x14C36, size: 0x8, addend: 0x0, symName: __ZNSt3__112basic_stringIcNS_11char_traitsIcEENS_9allocatorIcEEEC2B8ue170006Ev, symObjAddr: 0x13A4, symBinAddr: 0x1000063E0, symSize: 0x3C }
  - { offsetInCU: 0x9E81, offset: 0x14C64, size: 0x8, addend: 0x0, symName: __ZNSt3__117__compressed_pairINS_12basic_stringIcNS_11char_traitsIcEENS_9allocatorIcEEE5__repES5_EC1B8ue170006INS_18__default_init_tagESA_EEOT_OT0_, symObjAddr: 0x13E0, symBinAddr: 0x10000641C, symSize: 0x3C }
  - { offsetInCU: 0x9ED8, offset: 0x14CBB, size: 0x8, addend: 0x0, symName: __ZNSt3__112basic_stringIcNS_11char_traitsIcEENS_9allocatorIcEEE14__default_initB8ue170006Ev, symObjAddr: 0x141C, symBinAddr: 0x100006458, symSize: 0xB0 }
  - { offsetInCU: 0x9F2C, offset: 0x14D0F, size: 0x8, addend: 0x0, symName: __ZNSt3__117__compressed_pairINS_12basic_stringIcNS_11char_traitsIcEENS_9allocatorIcEEE5__repES5_EC2B8ue170006INS_18__default_init_tagESA_EEOT_OT0_, symObjAddr: 0x14CC, symBinAddr: 0x100006508, symSize: 0x3C }
  - { offsetInCU: 0x9F83, offset: 0x14D66, size: 0x8, addend: 0x0, symName: __ZNSt3__122__compressed_pair_elemINS_12basic_stringIcNS_11char_traitsIcEENS_9allocatorIcEEE5__repELi0ELb0EEC2B8ue170006ENS_18__default_init_tagE, symObjAddr: 0x1508, symBinAddr: 0x100006544, symSize: 0x14 }
  - { offsetInCU: 0x9FB7, offset: 0x14D9A, size: 0x8, addend: 0x0, symName: __ZNSt3__122__compressed_pair_elemINS_9allocatorIcEELi1ELb1EEC2B8ue170006ENS_18__default_init_tagE, symObjAddr: 0x151C, symBinAddr: 0x100006558, symSize: 0x2C }
  - { offsetInCU: 0x9FEB, offset: 0x14DCE, size: 0x8, addend: 0x0, symName: __ZNSt3__19allocatorIcEC2B8ue170006Ev, symObjAddr: 0x1548, symBinAddr: 0x100006584, symSize: 0x2C }
  - { offsetInCU: 0xA014, offset: 0x14DF7, size: 0x8, addend: 0x0, symName: __ZNSt3__116__non_trivial_ifILb1ENS_9allocatorIcEEEC2B8ue170006Ev, symObjAddr: 0x1574, symBinAddr: 0x1000065B0, symSize: 0x14 }
  - { offsetInCU: 0xA03D, offset: 0x14E20, size: 0x8, addend: 0x0, symName: __ZNSt3__112basic_stringIcNS_11char_traitsIcEENS_9allocatorIcEEE11__recommendB8ue170006Em, symObjAddr: 0x15B8, symBinAddr: 0x1000065C4, symSize: 0x9C }
  - { offsetInCU: 0xA071, offset: 0x14E54, size: 0x8, addend: 0x0, symName: __ZNSt3__116allocator_traitsINS_9allocatorIcEEE8allocateB8ue170006ERS2_m, symObjAddr: 0x1654, symBinAddr: 0x100006660, symSize: 0x2C }
  - { offsetInCU: 0xA0A4, offset: 0x14E87, size: 0x8, addend: 0x0, symName: __ZNSt3__112basic_stringIcNS_11char_traitsIcEENS_9allocatorIcEEE7__allocB8ue170006Ev, symObjAddr: 0x1680, symBinAddr: 0x10000668C, symSize: 0x24 }
  - { offsetInCU: 0xA0C9, offset: 0x14EAC, size: 0x8, addend: 0x0, symName: __ZNSt3__112basic_stringIcNS_11char_traitsIcEENS_9allocatorIcEEE16__begin_lifetimeB8ue170006EPcm, symObjAddr: 0x16A4, symBinAddr: 0x1000066B0, symSize: 0x14 }
  - { offsetInCU: 0xA0FC, offset: 0x14EDF, size: 0x8, addend: 0x0, symName: __ZNSt3__112basic_stringIcNS_11char_traitsIcEENS_9allocatorIcEEE18__set_long_pointerB8ue170006EPc, symObjAddr: 0x16B8, symBinAddr: 0x1000066C4, symSize: 0x38 }
  - { offsetInCU: 0xA130, offset: 0x14F13, size: 0x8, addend: 0x0, symName: __ZNSt3__112basic_stringIcNS_11char_traitsIcEENS_9allocatorIcEEE14__set_long_capB8ue170006Em, symObjAddr: 0x16F0, symBinAddr: 0x1000066FC, symSize: 0x70 }
  - { offsetInCU: 0xA164, offset: 0x14F47, size: 0x8, addend: 0x0, symName: __ZNSt3__112basic_stringIcNS_11char_traitsIcEENS_9allocatorIcEEE15__set_long_sizeB8ue170006Em, symObjAddr: 0x1760, symBinAddr: 0x10000676C, symSize: 0x38 }
  - { offsetInCU: 0xA198, offset: 0x14F7B, size: 0x8, addend: 0x0, symName: __ZNSt3__112basic_stringIcNS_11char_traitsIcEENS_9allocatorIcEEE10__align_itB8ue170006ILm16EEEmm, symObjAddr: 0x17AC, symBinAddr: 0x1000067A4, symSize: 0x1C }
  - { offsetInCU: 0xA1C6, offset: 0x14FA9, size: 0x8, addend: 0x0, symName: __ZNSt3__117__compressed_pairINS_12basic_stringIcNS_11char_traitsIcEENS_9allocatorIcEEE5__repES5_E6secondB8ue170006Ev, symObjAddr: 0x1904, symBinAddr: 0x1000067C0, symSize: 0x24 }
  - { offsetInCU: 0xA1EB, offset: 0x14FCE, size: 0x8, addend: 0x0, symName: __ZN11InputBufferC2Ev, symObjAddr: 0x193C, symBinAddr: 0x1000067E4, symSize: 0x2C }
  - { offsetInCU: 0xA216, offset: 0x14FF9, size: 0x8, addend: 0x0, symName: __ZNSt3__16vectorIcNS_9allocatorIcEEEC1B8ue170006Ev, symObjAddr: 0x1968, symBinAddr: 0x100006810, symSize: 0x2C }
  - { offsetInCU: 0xA23F, offset: 0x15022, size: 0x8, addend: 0x0, symName: __ZNSt3__16vectorIcNS_9allocatorIcEEEC2B8ue170006Ev, symObjAddr: 0x1994, symBinAddr: 0x10000683C, symSize: 0x44 }
  - { offsetInCU: 0xA26D, offset: 0x15050, size: 0x8, addend: 0x0, symName: __ZNSt3__117__compressed_pairIPcNS_9allocatorIcEEEC1B8ue170006IDnNS_18__default_init_tagEEEOT_OT0_, symObjAddr: 0x19D8, symBinAddr: 0x100006880, symSize: 0x3C }
  - { offsetInCU: 0xA2C4, offset: 0x150A7, size: 0x8, addend: 0x0, symName: __ZNSt3__117__compressed_pairIPcNS_9allocatorIcEEEC2B8ue170006IDnNS_18__default_init_tagEEEOT_OT0_, symObjAddr: 0x1A14, symBinAddr: 0x1000068BC, symSize: 0x40 }
  - { offsetInCU: 0xA31B, offset: 0x150FE, size: 0x8, addend: 0x0, symName: __ZN5TokenD2Ev, symObjAddr: 0x1A70, symBinAddr: 0x1000068FC, symSize: 0x2C }
  - { offsetInCU: 0xA346, offset: 0x15129, size: 0x8, addend: 0x0, symName: __ZN11InputBufferD2Ev, symObjAddr: 0x1A9C, symBinAddr: 0x100006928, symSize: 0x2C }
  - { offsetInCU: 0xA371, offset: 0x15154, size: 0x8, addend: 0x0, symName: __ZNSt3__16vectorIcNS_9allocatorIcEEED1B8ue170006Ev, symObjAddr: 0x1AC8, symBinAddr: 0x100006954, symSize: 0x2C }
  - { offsetInCU: 0xA39A, offset: 0x1517D, size: 0x8, addend: 0x0, symName: __ZNSt3__16vectorIcNS_9allocatorIcEEED2B8ue170006Ev, symObjAddr: 0x1AF4, symBinAddr: 0x100006980, symSize: 0x3C }
  - { offsetInCU: 0xA3C3, offset: 0x151A6, size: 0x8, addend: 0x0, symName: __ZNSt3__16vectorIcNS_9allocatorIcEEE16__destroy_vectorC1B8ue170006ERS3_, symObjAddr: 0x1B30, symBinAddr: 0x1000069BC, symSize: 0x34 }
  - { offsetInCU: 0xA3FB, offset: 0x151DE, size: 0x8, addend: 0x0, symName: __ZNSt3__16vectorIcNS_9allocatorIcEEE16__destroy_vectorclB8ue170006Ev, symObjAddr: 0x1B64, symBinAddr: 0x1000069F0, symSize: 0x90 }
  - { offsetInCU: 0xA420, offset: 0x15203, size: 0x8, addend: 0x0, symName: __ZNSt3__16vectorIcNS_9allocatorIcEEE16__destroy_vectorC2B8ue170006ERS3_, symObjAddr: 0x1BF4, symBinAddr: 0x100006A80, symSize: 0x20 }
  - { offsetInCU: 0xA458, offset: 0x1523B, size: 0x8, addend: 0x0, symName: __ZNSt3__16vectorIcNS_9allocatorIcEEE7__clearB8ue170006Ev, symObjAddr: 0x1C14, symBinAddr: 0x100006AA0, symSize: 0x28 }
  - { offsetInCU: 0xA47C, offset: 0x1525F, size: 0x8, addend: 0x0, symName: __Z8__istypeim, symObjAddr: 0x2054, symBinAddr: 0x100006AC8, symSize: 0x8C }
  - { offsetInCU: 0xA4B6, offset: 0x15299, size: 0x8, addend: 0x0, symName: __Z7isasciii, symObjAddr: 0x20E0, symBinAddr: 0x100006B54, symSize: 0x24 }
  - { offsetInCU: 0xA4E2, offset: 0x152C5, size: 0x8, addend: 0x0, symName: __Z9__isctypeim, symObjAddr: 0x2104, symBinAddr: 0x100006B78, symSize: 0x80 }
  - { offsetInCU: 0xA51D, offset: 0x15300, size: 0x8, addend: 0x0, symName: __ZN5TokenC2ERKS_, symObjAddr: 0x2184, symBinAddr: 0x100006BF8, symSize: 0x40 }
  - { offsetInCU: 0xA551, offset: 0x15334, size: 0x8, addend: 0x0, symName: __ZNSt3__112basic_stringIcNS_11char_traitsIcEENS_9allocatorIcEEEC2B8ue170006ILi0EEEPKc, symObjAddr: 0x21C4, symBinAddr: 0x100006C38, symSize: 0x58 }
  - { offsetInCU: 0xA58F, offset: 0x15372, size: 0x8, addend: 0x0, symName: __ZNSt3__111char_traitsIcE6lengthB8ue170006EPKc, symObjAddr: 0x221C, symBinAddr: 0x100006C90, symSize: 0x48 }
  - { offsetInCU: 0xA5D0, offset: 0x153B3, size: 0x8, addend: 0x0, symName: __ZNKSt3__113basic_ostreamIcNS_11char_traitsIcEEE6sentrycvbB8ue170006Ev, symObjAddr: 0x247C, symBinAddr: 0x100006EF0, symSize: 0x1C }
  - { offsetInCU: 0xA5F5, offset: 0x153D8, size: 0x8, addend: 0x0, symName: __ZNSt3__119ostreambuf_iteratorIcNS_11char_traitsIcEEEC1B8ue170006ERNS_13basic_ostreamIcS2_EE, symObjAddr: 0x26E0, symBinAddr: 0x100007154, symSize: 0x34 }
  - { offsetInCU: 0xA62C, offset: 0x1540F, size: 0x8, addend: 0x0, symName: __ZNKSt3__18ios_base5flagsB8ue170006Ev, symObjAddr: 0x2714, symBinAddr: 0x100007188, symSize: 0x18 }
  - { offsetInCU: 0xA652, offset: 0x15435, size: 0x8, addend: 0x0, symName: __ZNKSt3__19basic_iosIcNS_11char_traitsIcEEE4fillB8ue170006Ev, symObjAddr: 0x272C, symBinAddr: 0x1000071A0, symSize: 0x64 }
  - { offsetInCU: 0xA679, offset: 0x1545C, size: 0x8, addend: 0x0, symName: __ZNKSt3__119ostreambuf_iteratorIcNS_11char_traitsIcEEE6failedB8ue170006Ev, symObjAddr: 0x2790, symBinAddr: 0x100007204, symSize: 0x24 }
  - { offsetInCU: 0xA69E, offset: 0x15481, size: 0x8, addend: 0x0, symName: __ZNSt3__19basic_iosIcNS_11char_traitsIcEEE8setstateB8ue170006Ej, symObjAddr: 0x27B4, symBinAddr: 0x100007228, symSize: 0x2C }
  - { offsetInCU: 0xA6D2, offset: 0x154B5, size: 0x8, addend: 0x0, symName: __ZNKSt3__18ios_base5widthB8ue170006Ev, symObjAddr: 0x27E0, symBinAddr: 0x100007254, symSize: 0x18 }
  - { offsetInCU: 0xA6F9, offset: 0x154DC, size: 0x8, addend: 0x0, symName: __ZNSt3__115basic_streambufIcNS_11char_traitsIcEEE5sputnB8ue170006EPKcl, symObjAddr: 0x27F8, symBinAddr: 0x10000726C, symSize: 0x3C }
  - { offsetInCU: 0xA73A, offset: 0x1551D, size: 0x8, addend: 0x0, symName: __ZNSt3__112basic_stringIcNS_11char_traitsIcEENS_9allocatorIcEEEC1B8ue170006Emc, symObjAddr: 0x2834, symBinAddr: 0x1000072A8, symSize: 0x3C }
  - { offsetInCU: 0xA781, offset: 0x15564, size: 0x8, addend: 0x0, symName: __ZNKSt3__112basic_stringIcNS_11char_traitsIcEENS_9allocatorIcEEE4dataB8ue170006Ev, symObjAddr: 0x2870, symBinAddr: 0x1000072E4, symSize: 0x28 }
  - { offsetInCU: 0xA7A6, offset: 0x15589, size: 0x8, addend: 0x0, symName: __ZNSt3__18ios_base5widthB8ue170006El, symObjAddr: 0x2898, symBinAddr: 0x10000730C, symSize: 0x2C }
  - { offsetInCU: 0xA7EC, offset: 0x155CF, size: 0x8, addend: 0x0, symName: __ZNSt3__112basic_stringIcNS_11char_traitsIcEENS_9allocatorIcEEEC2B8ue170006Emc, symObjAddr: 0x28C4, symBinAddr: 0x100007338, symSize: 0x4C }
  - { offsetInCU: 0xA833, offset: 0x15616, size: 0x8, addend: 0x0, symName: __ZNKSt3__112basic_stringIcNS_11char_traitsIcEENS_9allocatorIcEEE13__get_pointerB8ue170006Ev, symObjAddr: 0x2924, symBinAddr: 0x100007398, symSize: 0x54 }
  - { offsetInCU: 0xA858, offset: 0x1563B, size: 0x8, addend: 0x0, symName: __ZNKSt3__112basic_stringIcNS_11char_traitsIcEENS_9allocatorIcEEE18__get_long_pointerB8ue170006Ev, symObjAddr: 0x29EC, symBinAddr: 0x1000073EC, symSize: 0x28 }
  - { offsetInCU: 0xA87D, offset: 0x15660, size: 0x8, addend: 0x0, symName: __ZNKSt3__112basic_stringIcNS_11char_traitsIcEENS_9allocatorIcEEE19__get_short_pointerB8ue170006Ev, symObjAddr: 0x2A14, symBinAddr: 0x100007414, symSize: 0x28 }
  - { offsetInCU: 0xA8A2, offset: 0x15685, size: 0x8, addend: 0x0, symName: __ZNSt3__114pointer_traitsIPKcE10pointer_toB8ue170006ERS1_, symObjAddr: 0x2A74, symBinAddr: 0x10000743C, symSize: 0x14 }
  - { offsetInCU: 0xA8C5, offset: 0x156A8, size: 0x8, addend: 0x0, symName: __ZNSt3__119ostreambuf_iteratorIcNS_11char_traitsIcEEEC2B8ue170006ERNS_13basic_ostreamIcS2_EE, symObjAddr: 0x2A88, symBinAddr: 0x100007450, symSize: 0x68 }
  - { offsetInCU: 0xA8FB, offset: 0x156DE, size: 0x8, addend: 0x0, symName: __ZNKSt3__19basic_iosIcNS_11char_traitsIcEEE5rdbufB8ue170006Ev, symObjAddr: 0x2AF0, symBinAddr: 0x1000074B8, symSize: 0x24 }
  - { offsetInCU: 0xA922, offset: 0x15705, size: 0x8, addend: 0x0, symName: __ZNKSt3__18ios_base5rdbufB8ue170006Ev, symObjAddr: 0x2B14, symBinAddr: 0x1000074DC, symSize: 0x18 }
  - { offsetInCU: 0xA947, offset: 0x1572A, size: 0x8, addend: 0x0, symName: __ZNSt3__111char_traitsIcE11eq_int_typeB8ue170006Eii, symObjAddr: 0x2B2C, symBinAddr: 0x1000074F4, symSize: 0x28 }
  - { offsetInCU: 0xA979, offset: 0x1575C, size: 0x8, addend: 0x0, symName: __ZNKSt3__19basic_iosIcNS_11char_traitsIcEEE5widenB8ue170006Ec, symObjAddr: 0x2B5C, symBinAddr: 0x10000751C, symSize: 0x8C }
  - { offsetInCU: 0xA9E6, offset: 0x157C9, size: 0x8, addend: 0x0, symName: __ZNKSt3__15ctypeIcE5widenB8ue170006Ec, symObjAddr: 0x2C14, symBinAddr: 0x1000075D4, symSize: 0x38 }
  - { offsetInCU: 0xAA19, offset: 0x157FC, size: 0x8, addend: 0x0, symName: __ZNSt3__18ios_base8setstateB8ue170006Ej, symObjAddr: 0x2C4C, symBinAddr: 0x10000760C, symSize: 0x34 }
  - { offsetInCU: 0xAA4F, offset: 0x15832, size: 0x8, addend: 0x0, symName: __ZNSt3__16vectorI5TokenNS_9allocatorIS1_EEEC2B8ue170006Ev, symObjAddr: 0x2D30, symBinAddr: 0x100007640, symSize: 0x44 }
  - { offsetInCU: 0xAA78, offset: 0x1585B, size: 0x8, addend: 0x0, symName: __ZNSt3__117__compressed_pairIP5TokenNS_9allocatorIS1_EEEC1B8ue170006IDnNS_18__default_init_tagEEEOT_OT0_, symObjAddr: 0x2D74, symBinAddr: 0x100007684, symSize: 0x3C }
  - { offsetInCU: 0xAACF, offset: 0x158B2, size: 0x8, addend: 0x0, symName: __ZNSt3__117__compressed_pairIP5TokenNS_9allocatorIS1_EEEC2B8ue170006IDnNS_18__default_init_tagEEEOT_OT0_, symObjAddr: 0x2DB0, symBinAddr: 0x1000076C0, symSize: 0x40 }
  - { offsetInCU: 0xAB26, offset: 0x15909, size: 0x8, addend: 0x0, symName: __ZNSt3__122__compressed_pair_elemIP5TokenLi0ELb0EEC2B8ue170006IDnvEEOT_, symObjAddr: 0x2DF0, symBinAddr: 0x100007700, symSize: 0x1C }
  - { offsetInCU: 0xAB67, offset: 0x1594A, size: 0x8, addend: 0x0, symName: __ZNSt3__122__compressed_pair_elemINS_9allocatorI5TokenEELi1ELb1EEC2B8ue170006ENS_18__default_init_tagE, symObjAddr: 0x2E0C, symBinAddr: 0x10000771C, symSize: 0x2C }
  - { offsetInCU: 0xAB9B, offset: 0x1597E, size: 0x8, addend: 0x0, symName: __ZNSt3__19allocatorI5TokenEC2B8ue170006Ev, symObjAddr: 0x2E38, symBinAddr: 0x100007748, symSize: 0x2C }
  - { offsetInCU: 0xABC4, offset: 0x159A7, size: 0x8, addend: 0x0, symName: __ZNSt3__116__non_trivial_ifILb1ENS_9allocatorI5TokenEEEC2B8ue170006Ev, symObjAddr: 0x2E64, symBinAddr: 0x100007774, symSize: 0x14 }
  - { offsetInCU: 0xABED, offset: 0x159D0, size: 0x8, addend: 0x0, symName: __ZNSt3__16vectorI5TokenNS_9allocatorIS1_EEED2B8ue170006Ev, symObjAddr: 0x2E78, symBinAddr: 0x100007788, symSize: 0x3C }
  - { offsetInCU: 0xAC16, offset: 0x159F9, size: 0x8, addend: 0x0, symName: __ZNSt3__16vectorI5TokenNS_9allocatorIS1_EEE16__destroy_vectorC1B8ue170006ERS4_, symObjAddr: 0x2EB4, symBinAddr: 0x1000077C4, symSize: 0x34 }
  - { offsetInCU: 0xAC4E, offset: 0x15A31, size: 0x8, addend: 0x0, symName: __ZNSt3__16vectorI5TokenNS_9allocatorIS1_EEE16__destroy_vectorclB8ue170006Ev, symObjAddr: 0x2EE8, symBinAddr: 0x1000077F8, symSize: 0x90 }
  - { offsetInCU: 0xAC73, offset: 0x15A56, size: 0x8, addend: 0x0, symName: __ZNSt3__16vectorI5TokenNS_9allocatorIS1_EEE16__destroy_vectorC2B8ue170006ERS4_, symObjAddr: 0x2F78, symBinAddr: 0x100007888, symSize: 0x20 }
  - { offsetInCU: 0xACAB, offset: 0x15A8E, size: 0x8, addend: 0x0, symName: __ZNSt3__16vectorI5TokenNS_9allocatorIS1_EEE7__clearB8ue170006Ev, symObjAddr: 0x2F98, symBinAddr: 0x1000078A8, symSize: 0x28 }
  - { offsetInCU: 0xACD0, offset: 0x15AB3, size: 0x8, addend: 0x0, symName: __ZNKSt3__16vectorI5TokenNS_9allocatorIS1_EEE17__annotate_deleteB8ue170006Ev, symObjAddr: 0x2FC0, symBinAddr: 0x1000078D0, symSize: 0xB8 }
  - { offsetInCU: 0xACF5, offset: 0x15AD8, size: 0x8, addend: 0x0, symName: __ZNSt3__116allocator_traitsINS_9allocatorI5TokenEEE10deallocateB8ue170006ERS3_PS2_m, symObjAddr: 0x3078, symBinAddr: 0x100007988, symSize: 0x34 }
  - { offsetInCU: 0xAD37, offset: 0x15B1A, size: 0x8, addend: 0x0, symName: __ZNSt3__16vectorI5TokenNS_9allocatorIS1_EEE7__allocB8ue170006Ev, symObjAddr: 0x30AC, symBinAddr: 0x1000079BC, symSize: 0x28 }
  - { offsetInCU: 0xAD5C, offset: 0x15B3F, size: 0x8, addend: 0x0, symName: __ZNKSt3__16vectorI5TokenNS_9allocatorIS1_EEE8capacityB8ue170006Ev, symObjAddr: 0x30D4, symBinAddr: 0x1000079E4, symSize: 0x40 }
  - { offsetInCU: 0xAD81, offset: 0x15B64, size: 0x8, addend: 0x0, symName: __ZNSt3__16vectorI5TokenNS_9allocatorIS1_EEE22__base_destruct_at_endB8ue170006EPS1_, symObjAddr: 0x3114, symBinAddr: 0x100007A24, symSize: 0xA0 }
  - { offsetInCU: 0xADC5, offset: 0x15BA8, size: 0x8, addend: 0x0, symName: __ZNSt3__116allocator_traitsINS_9allocatorI5TokenEEE7destroyB8ue170006IS2_vEEvRS3_PT_, symObjAddr: 0x31B4, symBinAddr: 0x100007AC4, symSize: 0x2C }
  - { offsetInCU: 0xAE02, offset: 0x15BE5, size: 0x8, addend: 0x0, symName: __ZNSt3__19allocatorI5TokenE7destroyB8ue170006EPS1_, symObjAddr: 0x31F4, symBinAddr: 0x100007B04, symSize: 0x28 }
  - { offsetInCU: 0xAE35, offset: 0x15C18, size: 0x8, addend: 0x0, symName: __ZNKSt3__16vectorI5TokenNS_9allocatorIS1_EEE31__annotate_contiguous_containerB8ue170006EPKvS6_S6_S6_, symObjAddr: 0x321C, symBinAddr: 0x100007B2C, symSize: 0x20 }
  - { offsetInCU: 0xAE86, offset: 0x15C69, size: 0x8, addend: 0x0, symName: __ZNKSt3__16vectorI5TokenNS_9allocatorIS1_EEE4dataB8ue170006Ev, symObjAddr: 0x323C, symBinAddr: 0x100007B4C, symSize: 0x28 }
  - { offsetInCU: 0xAEAB, offset: 0x15C8E, size: 0x8, addend: 0x0, symName: __ZNSt3__19allocatorI5TokenE10deallocateB8ue170006EPS1_m, symObjAddr: 0x3264, symBinAddr: 0x100007B74, symSize: 0x70 }
  - { offsetInCU: 0xAEEC, offset: 0x15CCF, size: 0x8, addend: 0x0, symName: __ZNSt3__117__compressed_pairIP5TokenNS_9allocatorIS1_EEE6secondB8ue170006Ev, symObjAddr: 0x32D4, symBinAddr: 0x100007BE4, symSize: 0x24 }
  - { offsetInCU: 0xAF11, offset: 0x15CF4, size: 0x8, addend: 0x0, symName: __ZNSt3__122__compressed_pair_elemINS_9allocatorI5TokenEELi1ELb1EE5__getB8ue170006Ev, symObjAddr: 0x32F8, symBinAddr: 0x100007C08, symSize: 0x14 }
  - { offsetInCU: 0xAF36, offset: 0x15D19, size: 0x8, addend: 0x0, symName: __ZNKSt3__16vectorI5TokenNS_9allocatorIS1_EEE9__end_capB8ue170006Ev, symObjAddr: 0x330C, symBinAddr: 0x100007C1C, symSize: 0x28 }
  - { offsetInCU: 0xAF5B, offset: 0x15D3E, size: 0x8, addend: 0x0, symName: __ZNKSt3__117__compressed_pairIP5TokenNS_9allocatorIS1_EEE5firstB8ue170006Ev, symObjAddr: 0x3334, symBinAddr: 0x100007C44, symSize: 0x24 }
  - { offsetInCU: 0xAF80, offset: 0x15D63, size: 0x8, addend: 0x0, symName: __ZNKSt3__122__compressed_pair_elemIP5TokenLi0ELb0EE5__getB8ue170006Ev, symObjAddr: 0x3358, symBinAddr: 0x100007C68, symSize: 0x14 }
  - { offsetInCU: 0xAFA5, offset: 0x15D88, size: 0x8, addend: 0x0, symName: __ZNSt3__16vectorI5TokenNS_9allocatorIS1_EEE9__end_capB8ue170006Ev, symObjAddr: 0x336C, symBinAddr: 0x100007C7C, symSize: 0x28 }
  - { offsetInCU: 0xAFCA, offset: 0x15DAD, size: 0x8, addend: 0x0, symName: __ZNSt3__16vectorI5TokenNS_9allocatorIS1_EEE22__construct_one_at_endB8ue170006IJRKS1_EEEvDpOT_, symObjAddr: 0x3394, symBinAddr: 0x100007CA4, symSize: 0x98 }
  - { offsetInCU: 0xB018, offset: 0x15DFB, size: 0x8, addend: 0x0, symName: __ZNSt3__16vectorI5TokenNS_9allocatorIS1_EEE21__push_back_slow_pathIRKS1_EEvOT_, symObjAddr: 0x342C, symBinAddr: 0x100007D3C, symSize: 0xE0 }
  - { offsetInCU: 0xB077, offset: 0x15E5A, size: 0x8, addend: 0x0, symName: __ZNSt3__117__compressed_pairIP5TokenNS_9allocatorIS1_EEE5firstB8ue170006Ev, symObjAddr: 0x350C, symBinAddr: 0x100007E1C, symSize: 0x24 }
  - { offsetInCU: 0xB09C, offset: 0x15E7F, size: 0x8, addend: 0x0, symName: __ZNSt3__122__compressed_pair_elemIP5TokenLi0ELb0EE5__getB8ue170006Ev, symObjAddr: 0x3530, symBinAddr: 0x100007E40, symSize: 0x14 }
  - { offsetInCU: 0xB0DA, offset: 0x15EBD, size: 0x8, addend: 0x0, symName: __ZNSt3__16vectorI5TokenNS_9allocatorIS1_EEE21_ConstructTransactionC1B8ue170006ERS4_m, symObjAddr: 0x3544, symBinAddr: 0x100007E54, symSize: 0x3C }
  - { offsetInCU: 0xB121, offset: 0x15F04, size: 0x8, addend: 0x0, symName: __ZNSt3__116allocator_traitsINS_9allocatorI5TokenEEE9constructB8ue170006IS2_JRKS2_EvEEvRS3_PT_DpOT0_, symObjAddr: 0x3580, symBinAddr: 0x100007E90, symSize: 0x34 }
  - { offsetInCU: 0xB178, offset: 0x15F5B, size: 0x8, addend: 0x0, symName: __ZNSt3__16vectorI5TokenNS_9allocatorIS1_EEE21_ConstructTransactionD1B8ue170006Ev, symObjAddr: 0x35B4, symBinAddr: 0x100007EC4, symSize: 0x2C }
  - { offsetInCU: 0xB1A1, offset: 0x15F84, size: 0x8, addend: 0x0, symName: __ZNSt3__16vectorI5TokenNS_9allocatorIS1_EEE21_ConstructTransactionC2B8ue170006ERS4_m, symObjAddr: 0x35E0, symBinAddr: 0x100007EF0, symSize: 0x44 }
  - { offsetInCU: 0xB1E8, offset: 0x15FCB, size: 0x8, addend: 0x0, symName: __ZNSt3__19allocatorI5TokenE9constructB8ue170006IS1_JRKS1_EEEvPT_DpOT0_, symObjAddr: 0x3624, symBinAddr: 0x100007F34, symSize: 0x30 }
  - { offsetInCU: 0xB23D, offset: 0x16020, size: 0x8, addend: 0x0, symName: __ZNSt3__16vectorI5TokenNS_9allocatorIS1_EEE21_ConstructTransactionD2B8ue170006Ev, symObjAddr: 0x3654, symBinAddr: 0x100007F64, symSize: 0x20 }
  - { offsetInCU: 0xB265, offset: 0x16048, size: 0x8, addend: 0x0, symName: __ZNKSt3__16vectorI5TokenNS_9allocatorIS1_EEE11__recommendB8ue170006Em, symObjAddr: 0x3674, symBinAddr: 0x100007F84, symSize: 0xB4 }
  - { offsetInCU: 0xB2BB, offset: 0x1609E, size: 0x8, addend: 0x0, symName: __ZNSt3__114__split_bufferI5TokenRNS_9allocatorIS1_EEEC1EmmS4_, symObjAddr: 0x3728, symBinAddr: 0x100008038, symSize: 0x44 }
  - { offsetInCU: 0xB310, offset: 0x160F3, size: 0x8, addend: 0x0, symName: __ZNSt3__114__split_bufferI5TokenRNS_9allocatorIS1_EEED1Ev, symObjAddr: 0x387C, symBinAddr: 0x10000818C, symSize: 0x2C }
  - { offsetInCU: 0xB33A, offset: 0x1611D, size: 0x8, addend: 0x0, symName: __ZNKSt3__16vectorI5TokenNS_9allocatorIS1_EEE8max_sizeEv, symObjAddr: 0x38A8, symBinAddr: 0x1000081B8, symSize: 0x74 }
  - { offsetInCU: 0xB361, offset: 0x16144, size: 0x8, addend: 0x0, symName: __ZNKSt3__16vectorI5TokenNS_9allocatorIS1_EEE20__throw_length_errorB8ue170006Ev, symObjAddr: 0x391C, symBinAddr: 0x10000822C, symSize: 0x1C }
  - { offsetInCU: 0xB390, offset: 0x16173, size: 0x8, addend: 0x0, symName: __ZNSt3__116allocator_traitsINS_9allocatorI5TokenEEE8max_sizeB8ue170006IS3_vEEmRKS3_, symObjAddr: 0x3990, symBinAddr: 0x100008248, symSize: 0x24 }
  - { offsetInCU: 0xB3BE, offset: 0x161A1, size: 0x8, addend: 0x0, symName: __ZNKSt3__16vectorI5TokenNS_9allocatorIS1_EEE7__allocB8ue170006Ev, symObjAddr: 0x39B4, symBinAddr: 0x10000826C, symSize: 0x28 }
  - { offsetInCU: 0xB3E3, offset: 0x161C6, size: 0x8, addend: 0x0, symName: __ZNKSt3__19allocatorI5TokenE8max_sizeB8ue170006Ev, symObjAddr: 0x3A78, symBinAddr: 0x100008294, symSize: 0x14 }
  - { offsetInCU: 0xB408, offset: 0x161EB, size: 0x8, addend: 0x0, symName: __ZNKSt3__117__compressed_pairIP5TokenNS_9allocatorIS1_EEE6secondB8ue170006Ev, symObjAddr: 0x3A8C, symBinAddr: 0x1000082A8, symSize: 0x24 }
  - { offsetInCU: 0xB42D, offset: 0x16210, size: 0x8, addend: 0x0, symName: __ZNKSt3__122__compressed_pair_elemINS_9allocatorI5TokenEELi1ELb1EE5__getB8ue170006Ev, symObjAddr: 0x3AB0, symBinAddr: 0x1000082CC, symSize: 0x14 }
  - { offsetInCU: 0xB452, offset: 0x16235, size: 0x8, addend: 0x0, symName: __ZNSt3__114__split_bufferI5TokenRNS_9allocatorIS1_EEEC2EmmS4_, symObjAddr: 0x3C04, symBinAddr: 0x1000082E0, symSize: 0xD4 }
  - { offsetInCU: 0xB4C6, offset: 0x162A9, size: 0x8, addend: 0x0, symName: __ZNSt3__117__compressed_pairIP5TokenRNS_9allocatorIS1_EEEC1B8ue170006IDnS5_EEOT_OT0_, symObjAddr: 0x3CD8, symBinAddr: 0x1000083B4, symSize: 0x3C }
  - { offsetInCU: 0xB51D, offset: 0x16300, size: 0x8, addend: 0x0, symName: __ZNSt3__114__split_bufferI5TokenRNS_9allocatorIS1_EEE7__allocB8ue170006Ev, symObjAddr: 0x3D54, symBinAddr: 0x100008430, symSize: 0x28 }
  - { offsetInCU: 0xB542, offset: 0x16325, size: 0x8, addend: 0x0, symName: __ZNSt3__114__split_bufferI5TokenRNS_9allocatorIS1_EEE9__end_capB8ue170006Ev, symObjAddr: 0x3D7C, symBinAddr: 0x100008458, symSize: 0x28 }
  - { offsetInCU: 0xB567, offset: 0x1634A, size: 0x8, addend: 0x0, symName: __ZNSt3__117__compressed_pairIP5TokenRNS_9allocatorIS1_EEEC2B8ue170006IDnS5_EEOT_OT0_, symObjAddr: 0x3DA4, symBinAddr: 0x100008480, symSize: 0x48 }
  - { offsetInCU: 0xB5BE, offset: 0x163A1, size: 0x8, addend: 0x0, symName: __ZNSt3__122__compressed_pair_elemIRNS_9allocatorI5TokenEELi1ELb0EEC2B8ue170006IS4_vEEOT_, symObjAddr: 0x3DEC, symBinAddr: 0x1000084C8, symSize: 0x20 }
  - { offsetInCU: 0xB5FF, offset: 0x163E2, size: 0x8, addend: 0x0, symName: __ZNSt3__19allocatorI5TokenE8allocateB8ue170006Em, symObjAddr: 0x3E0C, symBinAddr: 0x1000084E8, symSize: 0x84 }
  - { offsetInCU: 0xB632, offset: 0x16415, size: 0x8, addend: 0x0, symName: __ZNSt3__117__compressed_pairIP5TokenRNS_9allocatorIS1_EEE6secondB8ue170006Ev, symObjAddr: 0x3E90, symBinAddr: 0x10000856C, symSize: 0x28 }
  - { offsetInCU: 0xB657, offset: 0x1643A, size: 0x8, addend: 0x0, symName: __ZNSt3__122__compressed_pair_elemIRNS_9allocatorI5TokenEELi1ELb0EE5__getB8ue170006Ev, symObjAddr: 0x3EB8, symBinAddr: 0x100008594, symSize: 0x18 }
  - { offsetInCU: 0xB67C, offset: 0x1645F, size: 0x8, addend: 0x0, symName: __ZNSt3__117__compressed_pairIP5TokenRNS_9allocatorIS1_EEE5firstB8ue170006Ev, symObjAddr: 0x3ED0, symBinAddr: 0x1000085AC, symSize: 0x24 }
  - { offsetInCU: 0xB6A1, offset: 0x16484, size: 0x8, addend: 0x0, symName: __ZNSt3__116reverse_iteratorIP5TokenEC1B8ue170006ES2_, symObjAddr: 0x4028, symBinAddr: 0x100008704, symSize: 0x34 }
  - { offsetInCU: 0xB6D8, offset: 0x164BB, size: 0x8, addend: 0x0, symName: __ZNKSt3__116reverse_iteratorIP5TokenE4baseB8ue170006Ev, symObjAddr: 0x405C, symBinAddr: 0x100008738, symSize: 0x18 }
  - { offsetInCU: 0xB6FD, offset: 0x164E0, size: 0x8, addend: 0x0, symName: __ZNKSt3__16vectorI5TokenNS_9allocatorIS1_EEE14__annotate_newB8ue170006Em, symObjAddr: 0x40B0, symBinAddr: 0x10000878C, symSize: 0xAC }
  - { offsetInCU: 0xB731, offset: 0x16514, size: 0x8, addend: 0x0, symName: __ZNSt3__129_AllocatorDestroyRangeReverseINS_9allocatorI5TokenEENS_16reverse_iteratorIPS2_EEEC1B8ue170006ERS3_RS6_S9_, symObjAddr: 0x41A8, symBinAddr: 0x100008884, symSize: 0x44 }
  - { offsetInCU: 0xB787, offset: 0x1656A, size: 0x8, addend: 0x0, symName: __ZNKSt3__116reverse_iteratorIP5TokenEdeB8ue170006Ev, symObjAddr: 0x4258, symBinAddr: 0x100008934, symSize: 0x28 }
  - { offsetInCU: 0xB7BA, offset: 0x1659D, size: 0x8, addend: 0x0, symName: __ZNSt3__116reverse_iteratorIP5TokenEppB8ue170006Ev, symObjAddr: 0x4280, symBinAddr: 0x10000895C, symSize: 0x20 }
  - { offsetInCU: 0xB7DF, offset: 0x165C2, size: 0x8, addend: 0x0, symName: __ZNSt3__128__exception_guard_exceptionsINS_29_AllocatorDestroyRangeReverseINS_9allocatorI5TokenEENS_16reverse_iteratorIPS3_EEEEE10__completeB8ue170006Ev, symObjAddr: 0x42A0, symBinAddr: 0x10000897C, symSize: 0x1C }
  - { offsetInCU: 0xB804, offset: 0x165E7, size: 0x8, addend: 0x0, symName: __ZNSt3__128__exception_guard_exceptionsINS_29_AllocatorDestroyRangeReverseINS_9allocatorI5TokenEENS_16reverse_iteratorIPS3_EEEEED1B8ue170006Ev, symObjAddr: 0x42BC, symBinAddr: 0x100008998, symSize: 0x2C }
  - { offsetInCU: 0xB82D, offset: 0x16610, size: 0x8, addend: 0x0, symName: __ZNSt3__128__exception_guard_exceptionsINS_29_AllocatorDestroyRangeReverseINS_9allocatorI5TokenEENS_16reverse_iteratorIPS3_EEEEEC1B8ue170006ES8_, symObjAddr: 0x42E8, symBinAddr: 0x1000089C4, symSize: 0x34 }
  - { offsetInCU: 0xB865, offset: 0x16648, size: 0x8, addend: 0x0, symName: __ZNSt3__128__exception_guard_exceptionsINS_29_AllocatorDestroyRangeReverseINS_9allocatorI5TokenEENS_16reverse_iteratorIPS3_EEEEEC2B8ue170006ES8_, symObjAddr: 0x431C, symBinAddr: 0x1000089F8, symSize: 0x30 }
  - { offsetInCU: 0xB89D, offset: 0x16680, size: 0x8, addend: 0x0, symName: __ZNSt3__129_AllocatorDestroyRangeReverseINS_9allocatorI5TokenEENS_16reverse_iteratorIPS2_EEEC2B8ue170006ERS3_RS6_S9_, symObjAddr: 0x434C, symBinAddr: 0x100008A28, symSize: 0x38 }
  - { offsetInCU: 0xB8F8, offset: 0x166DB, size: 0x8, addend: 0x0, symName: __ZNSt3__119__to_address_helperINS_16reverse_iteratorIP5TokenEEvE6__callB8ue170006ERKS4_, symObjAddr: 0x4384, symBinAddr: 0x100008A60, symSize: 0x4C }
  - { offsetInCU: 0xB91B, offset: 0x166FE, size: 0x8, addend: 0x0, symName: __ZNKSt3__116reverse_iteratorIP5TokenEptB8ue170006Ev, symObjAddr: 0x43D0, symBinAddr: 0x100008AAC, symSize: 0x24 }
  - { offsetInCU: 0xB940, offset: 0x16723, size: 0x8, addend: 0x0, symName: __ZNSt3__128__exception_guard_exceptionsINS_29_AllocatorDestroyRangeReverseINS_9allocatorI5TokenEENS_16reverse_iteratorIPS3_EEEEED2B8ue170006Ev, symObjAddr: 0x43F4, symBinAddr: 0x100008AD0, symSize: 0x48 }
  - { offsetInCU: 0xB969, offset: 0x1674C, size: 0x8, addend: 0x0, symName: __ZNKSt3__129_AllocatorDestroyRangeReverseINS_9allocatorI5TokenEENS_16reverse_iteratorIPS2_EEEclB8ue170006Ev, symObjAddr: 0x443C, symBinAddr: 0x100008B18, symSize: 0xB4 }
  - { offsetInCU: 0xB98F, offset: 0x16772, size: 0x8, addend: 0x0, symName: __ZNSt3__116reverse_iteratorINS0_IP5TokenEEEC1B8ue170006ES3_, symObjAddr: 0x4560, symBinAddr: 0x100008C3C, symSize: 0x3C }
  - { offsetInCU: 0xB9C6, offset: 0x167A9, size: 0x8, addend: 0x0, symName: __ZNSt3__116reverse_iteratorINS0_IP5TokenEEEppB8ue170006Ev, symObjAddr: 0x4620, symBinAddr: 0x100008CFC, symSize: 0x30 }
  - { offsetInCU: 0xB9EB, offset: 0x167CE, size: 0x8, addend: 0x0, symName: __ZNKSt3__116reverse_iteratorINS0_IP5TokenEEE4baseB8ue170006Ev, symObjAddr: 0x4650, symBinAddr: 0x100008D2C, symSize: 0x24 }
  - { offsetInCU: 0xBA15, offset: 0x167F8, size: 0x8, addend: 0x0, symName: __ZNSt3__119__to_address_helperINS_16reverse_iteratorINS1_IP5TokenEEEEvE6__callB8ue170006ERKS5_, symObjAddr: 0x4674, symBinAddr: 0x100008D50, symSize: 0x4C }
  - { offsetInCU: 0xBA38, offset: 0x1681B, size: 0x8, addend: 0x0, symName: __ZNKSt3__116reverse_iteratorINS0_IP5TokenEEEptB8ue170006Ev, symObjAddr: 0x46C0, symBinAddr: 0x100008D9C, symSize: 0x24 }
  - { offsetInCU: 0xBA5D, offset: 0x16840, size: 0x8, addend: 0x0, symName: __ZNKSt3__116reverse_iteratorINS0_IP5TokenEEEdeB8ue170006Ev, symObjAddr: 0x46E4, symBinAddr: 0x100008DC0, symSize: 0x34 }
  - { offsetInCU: 0xBA90, offset: 0x16873, size: 0x8, addend: 0x0, symName: __ZNSt3__116reverse_iteratorIP5TokenEmmB8ue170006Ev, symObjAddr: 0x4718, symBinAddr: 0x100008DF4, symSize: 0x20 }
  - { offsetInCU: 0xBAB5, offset: 0x16898, size: 0x8, addend: 0x0, symName: __ZNSt3__116reverse_iteratorINS0_IP5TokenEEEC2B8ue170006ES3_, symObjAddr: 0x4738, symBinAddr: 0x100008E14, symSize: 0x2C }
  - { offsetInCU: 0xBAEC, offset: 0x168CF, size: 0x8, addend: 0x0, symName: __ZNSt3__116reverse_iteratorIP5TokenEC2B8ue170006ES2_, symObjAddr: 0x4764, symBinAddr: 0x100008E40, symSize: 0x28 }
  - { offsetInCU: 0xBB23, offset: 0x16906, size: 0x8, addend: 0x0, symName: __ZNSt3__114__split_bufferI5TokenRNS_9allocatorIS1_EEED2Ev, symObjAddr: 0x478C, symBinAddr: 0x100008E68, symSize: 0x80 }
  - { offsetInCU: 0xBB4E, offset: 0x16931, size: 0x8, addend: 0x0, symName: __ZNSt3__114__split_bufferI5TokenRNS_9allocatorIS1_EEE5clearB8ue170006Ev, symObjAddr: 0x480C, symBinAddr: 0x100008EE8, symSize: 0x28 }
  - { offsetInCU: 0xBB73, offset: 0x16956, size: 0x8, addend: 0x0, symName: __ZNKSt3__114__split_bufferI5TokenRNS_9allocatorIS1_EEE8capacityB8ue170006Ev, symObjAddr: 0x4834, symBinAddr: 0x100008F10, symSize: 0x40 }
  - { offsetInCU: 0xBB98, offset: 0x1697B, size: 0x8, addend: 0x0, symName: __ZNSt3__114__split_bufferI5TokenRNS_9allocatorIS1_EEE17__destruct_at_endB8ue170006EPS1_, symObjAddr: 0x4874, symBinAddr: 0x100008F50, symSize: 0x2C }
  - { offsetInCU: 0xBBCA, offset: 0x169AD, size: 0x8, addend: 0x0, symName: __ZNSt3__114__split_bufferI5TokenRNS_9allocatorIS1_EEE17__destruct_at_endB8ue170006EPS1_NS_17integral_constantIbLb0EEE, symObjAddr: 0x48A0, symBinAddr: 0x100008F7C, symSize: 0x94 }
  - { offsetInCU: 0xBC0A, offset: 0x169ED, size: 0x8, addend: 0x0, symName: __ZNKSt3__114__split_bufferI5TokenRNS_9allocatorIS1_EEE9__end_capB8ue170006Ev, symObjAddr: 0x4934, symBinAddr: 0x100009010, symSize: 0x28 }
  - { offsetInCU: 0xBC2F, offset: 0x16A12, size: 0x8, addend: 0x0, symName: __ZNKSt3__117__compressed_pairIP5TokenRNS_9allocatorIS1_EEE5firstB8ue170006Ev, symObjAddr: 0x495C, symBinAddr: 0x100009038, symSize: 0x24 }
  - { offsetInCU: 0xBC54, offset: 0x16A37, size: 0x8, addend: 0x0, symName: __ZNSt3__111char_traitsIcE7compareB8ue170006EPKcS3_m, symObjAddr: 0x4980, symBinAddr: 0x10000905C, symSize: 0x64 }
  - { offsetInCU: 0x9EBA, offset: 0x209F8, size: 0x8, addend: 0x0, symName: __ZNSt3__14endlB8ue170006IcNS_11char_traitsIcEEEERNS_13basic_ostreamIT_T0_EES7_, symObjAddr: 0x6A8, symBinAddr: 0x100009D44, symSize: 0x58 }
  - { offsetInCU: 0x9EFA, offset: 0x20A38, size: 0x8, addend: 0x0, symName: __ZNSt3__19make_pairB8ue170006IRNS_12basic_stringIcNS_11char_traitsIcEENS_9allocatorIcEEEERiEENS_4pairINS_18__unwrap_ref_decayIT_E4typeENSA_IT0_E4typeEEEOSB_OSE_, symObjAddr: 0xE44, symBinAddr: 0x10000A454, symSize: 0x40 }
  - { offsetInCU: 0x9F49, offset: 0x20A87, size: 0x8, addend: 0x0, symName: __ZNSt3__112__to_addressB8ue170006IiEEPT_S2_, symObjAddr: 0x48A4, symBinAddr: 0x10000C754, symSize: 0x14 }
  - { offsetInCU: 0x9F7E, offset: 0x20ABC, size: 0x8, addend: 0x0, symName: __ZNSt3__119__allocate_at_leastB8ue170006INS_9allocatorIiEEEENS_19__allocation_resultINS_16allocator_traitsIT_E7pointerEEERS5_m, symObjAddr: 0x5110, symBinAddr: 0x10000CD8C, symSize: 0x40 }
  - { offsetInCU: 0x9FC1, offset: 0x20AFF, size: 0x8, addend: 0x0, symName: __ZNSt3__142__uninitialized_allocator_move_if_noexceptB8ue170006INS_9allocatorIiEENS_16reverse_iteratorIPiEES5_ivEET1_RT_T0_S9_S6_, symObjAddr: 0x5444, symBinAddr: 0x10000D040, symSize: 0xE8 }
  - { offsetInCU: 0xA03E, offset: 0x20B7C, size: 0x8, addend: 0x0, symName: __ZNSt3__14swapB8ue170006IPiEEvRT_S3_, symObjAddr: 0x5578, symBinAddr: 0x10000D174, symSize: 0x3C }
  - { offsetInCU: 0xA08F, offset: 0x20BCD, size: 0x8, addend: 0x0, symName: __ZNSt3__1neB8ue170006IPiS1_EEbRKNS_16reverse_iteratorIT_EERKNS2_IT0_EE, symObjAddr: 0x56A8, symBinAddr: 0x10000D2A4, symSize: 0x48 }
  - { offsetInCU: 0xA100, offset: 0x20C3E, size: 0x8, addend: 0x0, symName: __ZNSt3__114__construct_atB8ue170006IiJiEPiEEPT_S3_DpOT0_, symObjAddr: 0x56F0, symBinAddr: 0x10000D2EC, symSize: 0x2C }
  - { offsetInCU: 0xA170, offset: 0x20CAE, size: 0x8, addend: 0x0, symName: __ZNSt3__112__to_addressB8ue170006INS_16reverse_iteratorIPiEEvEEu7__decayIDTclsr19__to_address_helperIT_EE6__callclsr3stdE7declvalIRKS4_EEEEES6_, symObjAddr: 0x571C, symBinAddr: 0x10000D318, symSize: 0x24 }
  - { offsetInCU: 0xA1A6, offset: 0x20CE4, size: 0x8, addend: 0x0, symName: __ZNSt3__14moveB8ue170006INS_16reverse_iteratorIPiEES3_EET0_T_S5_S4_, symObjAddr: 0x5788, symBinAddr: 0x10000D384, symSize: 0x78 }
  - { offsetInCU: 0xA229, offset: 0x20D67, size: 0x8, addend: 0x0, symName: __ZNSt3__16__moveB8ue170006INS_17_ClassicAlgPolicyENS_16reverse_iteratorIPiEES4_S4_EENS_4pairIT0_T2_EES6_T1_S7_, symObjAddr: 0x5870, symBinAddr: 0x10000D46C, symSize: 0x64 }
  - { offsetInCU: 0xA295, offset: 0x20DD3, size: 0x8, addend: 0x0, symName: __ZNSt3__123__dispatch_copy_or_moveB8ue170006INS_17_ClassicAlgPolicyENS_11__move_loopIS1_EENS_14__move_trivialENS_16reverse_iteratorIPiEES7_S7_EENS_4pairIT2_T4_EES9_T3_SA_, symObjAddr: 0x58D4, symBinAddr: 0x10000D4D0, symSize: 0x64 }
  - { offsetInCU: 0xA313, offset: 0x20E51, size: 0x8, addend: 0x0, symName: __ZNSt3__121__unwrap_and_dispatchB8ue170006INS_10__overloadINS_11__move_loopINS_17_ClassicAlgPolicyEEENS_14__move_trivialEEENS_16reverse_iteratorIPiEES9_S9_Li0EEENS_4pairIT0_T2_EESB_T1_SC_, symObjAddr: 0x5938, symBinAddr: 0x10000D534, symSize: 0x12C }
  - { offsetInCU: 0xA3A3, offset: 0x20EE1, size: 0x8, addend: 0x0, symName: __ZNSt3__114__unwrap_rangeB8ue170006INS_16reverse_iteratorIPiEES3_EENS_4pairIT0_S5_EET_S7_, symObjAddr: 0x5A64, symBinAddr: 0x10000D660, symSize: 0x84 }
  - { offsetInCU: 0xA4EE, offset: 0x2102C, size: 0x8, addend: 0x0, symName: __ZNSt3__113__unwrap_iterB8ue170006INS_16reverse_iteratorIPiEENS_18__unwrap_iter_implIS3_Lb0EEELi0EEEDTclsrT0_8__unwrapclsr3stdE7declvalIT_EEEES7_, symObjAddr: 0x5B88, symBinAddr: 0x10000D784, symSize: 0x44 }
  - { offsetInCU: 0xA532, offset: 0x21070, size: 0x8, addend: 0x0, symName: __ZNSt3__19make_pairB8ue170006INS_16reverse_iteratorIPiEES3_EENS_4pairINS_18__unwrap_ref_decayIT_E4typeENS5_IT0_E4typeEEEOS6_OS9_, symObjAddr: 0x5BCC, symBinAddr: 0x10000D7C8, symSize: 0x38 }
  - { offsetInCU: 0xA581, offset: 0x210BF, size: 0x8, addend: 0x0, symName: __ZNSt3__114__rewrap_rangeB8ue170006INS_16reverse_iteratorIPiEES3_EET_S4_T0_, symObjAddr: 0x5C04, symBinAddr: 0x10000D800, symSize: 0x5C }
  - { offsetInCU: 0xA5CD, offset: 0x2110B, size: 0x8, addend: 0x0, symName: __ZNSt3__113__rewrap_iterB8ue170006INS_16reverse_iteratorIPiEES3_NS_18__unwrap_iter_implIS3_Lb0EEEEET_S6_T0_, symObjAddr: 0x5C60, symBinAddr: 0x10000D85C, symSize: 0x88 }
  - { offsetInCU: 0xA6D4, offset: 0x21212, size: 0x8, addend: 0x0, symName: __ZNSt3__112__to_addressB8ue170006I9POLY_DECLEEPT_S3_, symObjAddr: 0x63F4, symBinAddr: 0x10000DF40, symSize: 0x14 }
  - { offsetInCU: 0xA709, offset: 0x21247, size: 0x8, addend: 0x0, symName: __ZNSt3__119__allocate_at_leastB8ue170006INS_9allocatorI9POLY_DECLEEEENS_19__allocation_resultINS_16allocator_traitsIT_E7pointerEEERS6_m, symObjAddr: 0x6AC8, symBinAddr: 0x10000E614, symSize: 0x40 }
  - { offsetInCU: 0xA74C, offset: 0x2128A, size: 0x8, addend: 0x0, symName: __ZNSt3__142__uninitialized_allocator_move_if_noexceptB8ue170006INS_9allocatorI9POLY_DECLEENS_16reverse_iteratorIPS2_EES6_S6_EET2_RT_T0_T1_S7_, symObjAddr: 0x6DA0, symBinAddr: 0x10000E8EC, symSize: 0x134 }
  - { offsetInCU: 0xA7EE, offset: 0x2132C, size: 0x8, addend: 0x0, symName: __ZNSt3__14swapB8ue170006IP9POLY_DECLEEvRT_S4_, symObjAddr: 0x6F20, symBinAddr: 0x10000EA6C, symSize: 0x3C }
  - { offsetInCU: 0xA83F, offset: 0x2137D, size: 0x8, addend: 0x0, symName: __ZNSt3__122__make_exception_guardB8ue170006INS_29_AllocatorDestroyRangeReverseINS_9allocatorI9POLY_DECLEENS_16reverse_iteratorIPS3_EEEEEENS_28__exception_guard_exceptionsIT_EESA_, symObjAddr: 0x706C, symBinAddr: 0x10000EBB8, symSize: 0x4C }
  - { offsetInCU: 0xA875, offset: 0x213B3, size: 0x8, addend: 0x0, symName: __ZNSt3__1neB8ue170006IP9POLY_DECLS2_EEbRKNS_16reverse_iteratorIT_EERKNS3_IT0_EE, symObjAddr: 0x70FC, symBinAddr: 0x10000EC48, symSize: 0x48 }
  - { offsetInCU: 0xA8C1, offset: 0x213FF, size: 0x8, addend: 0x0, symName: __ZNSt3__112__to_addressB8ue170006INS_16reverse_iteratorIP9POLY_DECLEEvEEu7__decayIDTclsr19__to_address_helperIT_EE6__callclsr3stdE7declvalIRKS5_EEEEES7_, symObjAddr: 0x7144, symBinAddr: 0x10000EC90, symSize: 0x24 }
  - { offsetInCU: 0xA920, offset: 0x2145E, size: 0x8, addend: 0x0, symName: __ZNSt3__119__allocator_destroyB8ue170006INS_9allocatorI9POLY_DECLEENS_16reverse_iteratorINS4_IPS2_EEEES7_EEvRT_T0_T1_, symObjAddr: 0x7400, symBinAddr: 0x10000EF4C, symSize: 0x70 }
  - { offsetInCU: 0xA985, offset: 0x214C3, size: 0x8, addend: 0x0, symName: __ZNSt3__1neB8ue170006INS_16reverse_iteratorIP9POLY_DECLEES4_EEbRKNS1_IT_EERKNS1_IT0_EE, symObjAddr: 0x74AC, symBinAddr: 0x10000EFF8, symSize: 0x60 }
  - { offsetInCU: 0xA9D1, offset: 0x2150F, size: 0x8, addend: 0x0, symName: __ZNSt3__112__to_addressB8ue170006INS_16reverse_iteratorINS1_IP9POLY_DECLEEEEvEEu7__decayIDTclsr19__to_address_helperIT_EE6__callclsr3stdE7declvalIRKS6_EEEEES8_, symObjAddr: 0x7538, symBinAddr: 0x10000F084, symSize: 0x24 }
  - { offsetInCU: 0xAA30, offset: 0x2156E, size: 0x8, addend: 0x0, symName: __ZNSt3__112__to_addressB8ue170006INS_4pairINS_12basic_stringIcNS_11char_traitsIcEENS_9allocatorIcEEEEiEEEEPT_SA_, symObjAddr: 0x7CD4, symBinAddr: 0x10000F820, symSize: 0x14 }
  - { offsetInCU: 0xAA65, offset: 0x215A3, size: 0x8, addend: 0x0, symName: __ZNSt3__119__allocate_at_leastB8ue170006INS_9allocatorINS_4pairINS_12basic_stringIcNS_11char_traitsIcEENS1_IcEEEEiEEEEEENS_19__allocation_resultINS_16allocator_traitsIT_E7pointerEEERSC_m, symObjAddr: 0x8388, symBinAddr: 0x10000FED4, symSize: 0x40 }
  - { offsetInCU: 0xAAA8, offset: 0x215E6, size: 0x8, addend: 0x0, symName: __ZNSt3__142__uninitialized_allocator_move_if_noexceptB8ue170006INS_9allocatorINS_4pairINS_12basic_stringIcNS_11char_traitsIcEENS1_IcEEEEiEEEENS_16reverse_iteratorIPS8_EESC_SC_EET2_RT_T0_T1_SD_, symObjAddr: 0x863C, symBinAddr: 0x100010188, symSize: 0x134 }
  - { offsetInCU: 0xAB4A, offset: 0x21688, size: 0x8, addend: 0x0, symName: __ZNSt3__14swapB8ue170006IPNS_4pairINS_12basic_stringIcNS_11char_traitsIcEENS_9allocatorIcEEEEiEEEEvRT_SB_, symObjAddr: 0x87BC, symBinAddr: 0x100010308, symSize: 0x3C }
  - { offsetInCU: 0xAB9B, offset: 0x216D9, size: 0x8, addend: 0x0, symName: __ZNSt3__122__make_exception_guardB8ue170006INS_29_AllocatorDestroyRangeReverseINS_9allocatorINS_4pairINS_12basic_stringIcNS_11char_traitsIcEENS2_IcEEEEiEEEENS_16reverse_iteratorIPS9_EEEEEENS_28__exception_guard_exceptionsIT_EESG_, symObjAddr: 0x88EC, symBinAddr: 0x100010438, symSize: 0x4C }
  - { offsetInCU: 0xABD1, offset: 0x2170F, size: 0x8, addend: 0x0, symName: __ZNSt3__1neB8ue170006IPNS_4pairINS_12basic_stringIcNS_11char_traitsIcEENS_9allocatorIcEEEEiEES9_EEbRKNS_16reverse_iteratorIT_EERKNSA_IT0_EE, symObjAddr: 0x897C, symBinAddr: 0x1000104C8, symSize: 0x48 }
  - { offsetInCU: 0xAC1D, offset: 0x2175B, size: 0x8, addend: 0x0, symName: __ZNSt3__112__to_addressB8ue170006INS_16reverse_iteratorIPNS_4pairINS_12basic_stringIcNS_11char_traitsIcEENS_9allocatorIcEEEEiEEEEvEEu7__decayIDTclsr19__to_address_helperIT_EE6__callclsr3stdE7declvalIRKSC_EEEEESE_, symObjAddr: 0x89F8, symBinAddr: 0x100010544, symSize: 0x24 }
  - { offsetInCU: 0xAC7C, offset: 0x217BA, size: 0x8, addend: 0x0, symName: __ZNSt3__119__allocator_destroyB8ue170006INS_9allocatorINS_4pairINS_12basic_stringIcNS_11char_traitsIcEENS1_IcEEEEiEEEENS_16reverse_iteratorINSA_IPS8_EEEESD_EEvRT_T0_T1_, symObjAddr: 0x8D58, symBinAddr: 0x1000108A4, symSize: 0x70 }
  - { offsetInCU: 0xACE1, offset: 0x2181F, size: 0x8, addend: 0x0, symName: __ZNSt3__1neB8ue170006INS_16reverse_iteratorIPNS_4pairINS_12basic_stringIcNS_11char_traitsIcEENS_9allocatorIcEEEEiEEEESB_EEbRKNS1_IT_EERKNS1_IT0_EE, symObjAddr: 0x8E04, symBinAddr: 0x100010950, symSize: 0x60 }
  - { offsetInCU: 0xAD2D, offset: 0x2186B, size: 0x8, addend: 0x0, symName: __ZNSt3__112__to_addressB8ue170006INS_16reverse_iteratorINS1_IPNS_4pairINS_12basic_stringIcNS_11char_traitsIcEENS_9allocatorIcEEEEiEEEEEEvEEu7__decayIDTclsr19__to_address_helperIT_EE6__callclsr3stdE7declvalIRKSD_EEEEESF_, symObjAddr: 0x8E90, symBinAddr: 0x1000109DC, symSize: 0x24 }
  - { offsetInCU: 0xB370, offset: 0x21EAE, size: 0x8, addend: 0x0, symName: __ZNSt3__16vectorIiNS_9allocatorIiEEE26__swap_out_circular_bufferERNS_14__split_bufferIiRS2_EE, symObjAddr: 0x4AC8, symBinAddr: 0x10000C978, symSize: 0x110 }
  - { offsetInCU: 0xB834, offset: 0x22372, size: 0x8, addend: 0x0, symName: __ZNSt3__16vectorI9POLY_DECLNS_9allocatorIS1_EEE26__swap_out_circular_bufferERNS_14__split_bufferIS1_RS3_EE, symObjAddr: 0x66A4, symBinAddr: 0x10000E1F0, symSize: 0x110 }
  - { offsetInCU: 0xB8C5, offset: 0x22403, size: 0x8, addend: 0x0, symName: __ZNSt3__16vectorINS_4pairINS_12basic_stringIcNS_11char_traitsIcEENS_9allocatorIcEEEEiEENS5_IS8_EEE26__swap_out_circular_bufferERNS_14__split_bufferIS8_RS9_EE, symObjAddr: 0x7F74, symBinAddr: 0x10000FAC0, symSize: 0x110 }
  - { offsetInCU: 0xDD4D, offset: 0x2488B, size: 0x8, addend: 0x0, symName: __ZN6Parser12syntax_errorEv, symObjAddr: 0x0, symBinAddr: 0x10000971C, symSize: 0x2C }
  - { offsetInCU: 0xDD74, offset: 0x248B2, size: 0x8, addend: 0x0, symName: __ZN6Parser13parse_programEP7PROGRAM, symObjAddr: 0x74, symBinAddr: 0x100009748, symSize: 0xAC }
  - { offsetInCU: 0xDDA9, offset: 0x248E7, size: 0x8, addend: 0x0, symName: __ZN6Parser19parse_tasks_sectionEPNSt3__16vectorIiNS0_9allocatorIiEEEE, symObjAddr: 0x120, symBinAddr: 0x1000097F4, symSize: 0x74 }
  - { offsetInCU: 0xDDEC, offset: 0x2492A, size: 0x8, addend: 0x0, symName: __ZN6Parser18parse_poly_sectionEPNSt3__16vectorI9POLY_DECLNS0_9allocatorIS2_EEEE, symObjAddr: 0x194, symBinAddr: 0x100009868, symSize: 0x18C }
  - { offsetInCU: 0xDE2F, offset: 0x2496D, size: 0x8, addend: 0x0, symName: __ZN6Parser21parse_execute_sectionEP14STATEMENT_LIST, symObjAddr: 0x320, symBinAddr: 0x1000099F4, symSize: 0x74 }
  - { offsetInCU: 0xDE76, offset: 0x249B4, size: 0x8, addend: 0x0, symName: __ZN6Parser20parse_inputs_sectionEPNSt3__16vectorIiNS0_9allocatorIiEEEE, symObjAddr: 0x394, symBinAddr: 0x100009A68, symSize: 0x74 }
  - { offsetInCU: 0xDEBD, offset: 0x249FB, size: 0x8, addend: 0x0, symName: __ZN6Parser6expectE9TokenType, symObjAddr: 0x408, symBinAddr: 0x100009ADC, symSize: 0xC8 }
  - { offsetInCU: 0xDF05, offset: 0x24A43, size: 0x8, addend: 0x0, symName: __ZN6Parser14parse_num_listEPNSt3__16vectorIiNS0_9allocatorIiEEEE, symObjAddr: 0x4D0, symBinAddr: 0x100009BA4, symSize: 0x108 }
  - { offsetInCU: 0xDF56, offset: 0x24A94, size: 0x8, addend: 0x0, symName: __ZNSt3__16vectorIiNS_9allocatorIiEEE9push_backB8ue170006EOi, symObjAddr: 0x610, symBinAddr: 0x100009CAC, symSize: 0x6C }
  - { offsetInCU: 0xDF8B, offset: 0x24AC9, size: 0x8, addend: 0x0, symName: __ZNSt3__113basic_ostreamIcNS_11char_traitsIcEEElsB8ue170006EPFRS3_S4_E, symObjAddr: 0x67C, symBinAddr: 0x100009D18, symSize: 0x2C }
  - { offsetInCU: 0xDFBE, offset: 0x24AFC, size: 0x8, addend: 0x0, symName: __ZN6Parser20parse_poly_decl_listEPNSt3__16vectorI9POLY_DECLNS0_9allocatorIS2_EEEE, symObjAddr: 0x78C, symBinAddr: 0x100009D9C, symSize: 0xF0 }
  - { offsetInCU: 0xE001, offset: 0x24B3F, size: 0x8, addend: 0x0, symName: __ZN6Parser15parse_poly_declEPNSt3__16vectorI9POLY_DECLNS0_9allocatorIS2_EEEE, symObjAddr: 0x87C, symBinAddr: 0x100009E8C, symSize: 0x15C }
  - { offsetInCU: 0xE065, offset: 0x24BA3, size: 0x8, addend: 0x0, symName: __ZN9POLY_DECLC1Ev, symObjAddr: 0x9D8, symBinAddr: 0x100009FE8, symSize: 0x2C }
  - { offsetInCU: 0xE090, offset: 0x24BCE, size: 0x8, addend: 0x0, symName: __ZN6Parser17parse_poly_headerEP9POLY_DECL, symObjAddr: 0xA04, symBinAddr: 0x10000A014, symSize: 0x138 }
  - { offsetInCU: 0xE0F7, offset: 0x24C35, size: 0x8, addend: 0x0, symName: __ZN6Parser15parse_poly_bodyEP9POLY_DECL, symObjAddr: 0xB3C, symBinAddr: 0x10000A14C, symSize: 0x64 }
  - { offsetInCU: 0xE13A, offset: 0x24C78, size: 0x8, addend: 0x0, symName: __ZNSt3__16vectorI9POLY_DECLNS_9allocatorIS1_EEE9push_backB8ue170006ERKS1_, symObjAddr: 0xBA0, symBinAddr: 0x10000A1B0, symSize: 0x6C }
  - { offsetInCU: 0xE16F, offset: 0x24CAD, size: 0x8, addend: 0x0, symName: __ZN6Parser15parse_poly_nameEv, symObjAddr: 0xC0C, symBinAddr: 0x10000A21C, symSize: 0x78 }
  - { offsetInCU: 0xE1A4, offset: 0x24CE2, size: 0x8, addend: 0x0, symName: __ZN6Parser13parse_id_listEPNSt3__16vectorINS0_4pairINS0_12basic_stringIcNS0_11char_traitsIcEENS0_9allocatorIcEEEEiEENS6_IS9_EEEEi, symObjAddr: 0xC84, symBinAddr: 0x10000A294, symSize: 0x154 }
  - { offsetInCU: 0xE204, offset: 0x24D42, size: 0x8, addend: 0x0, symName: __ZNSt3__16vectorINS_4pairINS_12basic_stringIcNS_11char_traitsIcEENS_9allocatorIcEEEEiEENS5_IS8_EEE9push_backB8ue170006EOS8_, symObjAddr: 0xDD8, symBinAddr: 0x10000A3E8, symSize: 0x6C }
  - { offsetInCU: 0xE239, offset: 0x24D77, size: 0x8, addend: 0x0, symName: __ZNSt3__14pairINS_12basic_stringIcNS_11char_traitsIcEENS_9allocatorIcEEEEiED1Ev, symObjAddr: 0xE84, symBinAddr: 0x10000A494, symSize: 0x2C }
  - { offsetInCU: 0xE269, offset: 0x24DA7, size: 0x8, addend: 0x0, symName: __ZN9TERM_LISTC1Ev, symObjAddr: 0xEB0, symBinAddr: 0x10000A4C0, symSize: 0x2C }
  - { offsetInCU: 0xE294, offset: 0x24DD2, size: 0x8, addend: 0x0, symName: __ZN6Parser15parse_term_listEP9TERM_LIST, symObjAddr: 0xEDC, symBinAddr: 0x10000A4EC, symSize: 0x164 }
  - { offsetInCU: 0xE307, offset: 0x24E45, size: 0x8, addend: 0x0, symName: __ZN4TERMC1Ev, symObjAddr: 0x1040, symBinAddr: 0x10000A650, symSize: 0x2C }
  - { offsetInCU: 0xE332, offset: 0x24E70, size: 0x8, addend: 0x0, symName: __ZN6Parser10parse_termEP4TERM, symObjAddr: 0x106C, symBinAddr: 0x10000A67C, symSize: 0x270 }
  - { offsetInCU: 0xE3B0, offset: 0x24EEE, size: 0x8, addend: 0x0, symName: __ZN6Parser18parse_add_operatorEv, symObjAddr: 0x12DC, symBinAddr: 0x10000A8EC, symSize: 0x194 }
  - { offsetInCU: 0xE41C, offset: 0x24F5A, size: 0x8, addend: 0x0, symName: __ZN13MONOMIAL_LISTC1Ev, symObjAddr: 0x1470, symBinAddr: 0x10000AA80, symSize: 0x2C }
  - { offsetInCU: 0xE447, offset: 0x24F85, size: 0x8, addend: 0x0, symName: __ZN6Parser19parse_monomial_listEP13MONOMIAL_LIST, symObjAddr: 0x149C, symBinAddr: 0x10000AAAC, symSize: 0x128 }
  - { offsetInCU: 0xE4AD, offset: 0x24FEB, size: 0x8, addend: 0x0, symName: __ZN6Parser17parse_coefficientEv, symObjAddr: 0x15C4, symBinAddr: 0x10000ABD4, symSize: 0x8C }
  - { offsetInCU: 0xE4FA, offset: 0x25038, size: 0x8, addend: 0x0, symName: __ZN8MONOMIALC1Ev, symObjAddr: 0x1650, symBinAddr: 0x10000AC60, symSize: 0x2C }
  - { offsetInCU: 0xE525, offset: 0x25063, size: 0x8, addend: 0x0, symName: __ZN6Parser14parse_monomialEP8MONOMIAL, symObjAddr: 0x167C, symBinAddr: 0x10000AC8C, symSize: 0xF0 }
  - { offsetInCU: 0xE598, offset: 0x250D6, size: 0x8, addend: 0x0, symName: __ZN7PRIMARYC1Ev, symObjAddr: 0x176C, symBinAddr: 0x10000AD7C, symSize: 0x2C }
  - { offsetInCU: 0xE5C3, offset: 0x25101, size: 0x8, addend: 0x0, symName: __ZN6Parser13parse_primaryEP7PRIMARY, symObjAddr: 0x1798, symBinAddr: 0x10000ADA8, symSize: 0x180 }
  - { offsetInCU: 0xE64E, offset: 0x2518C, size: 0x8, addend: 0x0, symName: __ZN6Parser14parse_exponentEv, symObjAddr: 0x1918, symBinAddr: 0x10000AF28, symSize: 0xCC }
  - { offsetInCU: 0xE6A6, offset: 0x251E4, size: 0x8, addend: 0x0, symName: __ZN6Parser20parse_statement_listEP14STATEMENT_LIST, symObjAddr: 0x19E4, symBinAddr: 0x10000AFF4, symSize: 0x158 }
  - { offsetInCU: 0xE728, offset: 0x25266, size: 0x8, addend: 0x0, symName: __ZN9STATEMENTC1Ev, symObjAddr: 0x1B3C, symBinAddr: 0x10000B14C, symSize: 0x2C }
  - { offsetInCU: 0xE753, offset: 0x25291, size: 0x8, addend: 0x0, symName: __ZN6Parser15parse_statementEP9STATEMENT, symObjAddr: 0x1B68, symBinAddr: 0x10000B178, symSize: 0x130 }
  - { offsetInCU: 0xE79A, offset: 0x252D8, size: 0x8, addend: 0x0, symName: __ZN6Parser21parse_input_statementEP9STATEMENT, symObjAddr: 0x1C98, symBinAddr: 0x10000B2A8, symSize: 0x1FC }
  - { offsetInCU: 0xE814, offset: 0x25352, size: 0x8, addend: 0x0, symName: __ZN6Parser22parse_output_statementEP9STATEMENT, symObjAddr: 0x1E94, symBinAddr: 0x10000B4A4, symSize: 0x1FC }
  - { offsetInCU: 0xE88E, offset: 0x253CC, size: 0x8, addend: 0x0, symName: __ZN6Parser22parse_assign_statementEP9STATEMENT, symObjAddr: 0x2090, symBinAddr: 0x10000B6A0, symSize: 0x1EC }
  - { offsetInCU: 0xE91C, offset: 0x2545A, size: 0x8, addend: 0x0, symName: __ZN9POLY_EVALC1Ev, symObjAddr: 0x227C, symBinAddr: 0x10000B88C, symSize: 0x2C }
  - { offsetInCU: 0xE947, offset: 0x25485, size: 0x8, addend: 0x0, symName: __ZN6Parser21parse_poly_evaluationEP9POLY_EVAL, symObjAddr: 0x22A8, symBinAddr: 0x10000B8B8, symSize: 0x188 }
  - { offsetInCU: 0xE9A5, offset: 0x254E3, size: 0x8, addend: 0x0, symName: __ZN13ARGUMENT_LISTC1Ev, symObjAddr: 0x2430, symBinAddr: 0x10000BA40, symSize: 0x2C }
  - { offsetInCU: 0xE9D0, offset: 0x2550E, size: 0x8, addend: 0x0, symName: __ZN6Parser19parse_argument_listEP13ARGUMENT_LIST, symObjAddr: 0x245C, symBinAddr: 0x10000BA6C, symSize: 0x138 }
  - { offsetInCU: 0xEA43, offset: 0x25581, size: 0x8, addend: 0x0, symName: __ZN8ARGUMENTC1Ev, symObjAddr: 0x2594, symBinAddr: 0x10000BBA4, symSize: 0x2C }
  - { offsetInCU: 0xEA6E, offset: 0x255AC, size: 0x8, addend: 0x0, symName: __ZN6Parser14parse_argumentEP8ARGUMENT, symObjAddr: 0x25C0, symBinAddr: 0x10000BBD0, symSize: 0x2E0 }
  - { offsetInCU: 0xEADE, offset: 0x2561C, size: 0x8, addend: 0x0, symName: __ZN6Parser16allocate_programEv, symObjAddr: 0x28A0, symBinAddr: 0x10000BEB0, symSize: 0x12C }
  - { offsetInCU: 0xEB1B, offset: 0x25659, size: 0x8, addend: 0x0, symName: __ZN7PROGRAMC1Ev, symObjAddr: 0x29CC, symBinAddr: 0x10000BFDC, symSize: 0x2C }
  - { offsetInCU: 0xEB46, offset: 0x25684, size: 0x8, addend: 0x0, symName: __ZNSt3__16vectorIiNS_9allocatorIiEEEC1B8ue170006Ev, symObjAddr: 0x29F8, symBinAddr: 0x10000C008, symSize: 0x2C }
  - { offsetInCU: 0xEB6F, offset: 0x256AD, size: 0x8, addend: 0x0, symName: __ZNSt3__16vectorI9POLY_DECLNS_9allocatorIS1_EEEC1B8ue170006Ev, symObjAddr: 0x2A24, symBinAddr: 0x10000C034, symSize: 0x2C }
  - { offsetInCU: 0xEB9D, offset: 0x256DB, size: 0x8, addend: 0x0, symName: __ZN14STATEMENT_LISTC1Ev, symObjAddr: 0x2A50, symBinAddr: 0x10000C060, symSize: 0x2C }
  - { offsetInCU: 0xEBC8, offset: 0x25706, size: 0x8, addend: 0x0, symName: _main, symObjAddr: 0x2A7C, symBinAddr: 0x10000C08C, symSize: 0xF8 }
  - { offsetInCU: 0xEC16, offset: 0x25754, size: 0x8, addend: 0x0, symName: __ZN6ParserC1Ev, symObjAddr: 0x2B74, symBinAddr: 0x10000C184, symSize: 0x2C }
  - { offsetInCU: 0xEC41, offset: 0x2577F, size: 0x8, addend: 0x0, symName: __ZN6ParserD1Ev, symObjAddr: 0x2BA0, symBinAddr: 0x10000C1B0, symSize: 0x2C }
  - { offsetInCU: 0xEC6C, offset: 0x257AA, size: 0x8, addend: 0x0, symName: __ZN9POLY_DECLC2Ev, symObjAddr: 0x2BF8, symBinAddr: 0x10000C1DC, symSize: 0x44 }
  - { offsetInCU: 0xECA1, offset: 0x257DF, size: 0x8, addend: 0x0, symName: __ZNSt3__14pairINS_12basic_stringIcNS_11char_traitsIcEENS_9allocatorIcEEEEiED2Ev, symObjAddr: 0x2E2C, symBinAddr: 0x10000C220, symSize: 0x2C }
  - { offsetInCU: 0xECCC, offset: 0x2580A, size: 0x8, addend: 0x0, symName: __ZN9TERM_LISTC2Ev, symObjAddr: 0x2E58, symBinAddr: 0x10000C24C, symSize: 0x18 }
  - { offsetInCU: 0xECF7, offset: 0x25835, size: 0x8, addend: 0x0, symName: __ZN4TERMC2Ev, symObjAddr: 0x2E70, symBinAddr: 0x10000C264, symSize: 0x20 }
  - { offsetInCU: 0xED22, offset: 0x25860, size: 0x8, addend: 0x0, symName: __ZN13MONOMIAL_LISTC2Ev, symObjAddr: 0x2E90, symBinAddr: 0x10000C284, symSize: 0x18 }
  - { offsetInCU: 0xED4D, offset: 0x2588B, size: 0x8, addend: 0x0, symName: __ZN8MONOMIALC2Ev, symObjAddr: 0x2EA8, symBinAddr: 0x10000C29C, symSize: 0x20 }
  - { offsetInCU: 0xED78, offset: 0x258B6, size: 0x8, addend: 0x0, symName: __ZN7PRIMARYC2Ev, symObjAddr: 0x2EC8, symBinAddr: 0x10000C2BC, symSize: 0x28 }
  - { offsetInCU: 0xEDA3, offset: 0x258E1, size: 0x8, addend: 0x0, symName: __ZN9STATEMENTC2Ev, symObjAddr: 0x2EF0, symBinAddr: 0x10000C2E4, symSize: 0x2C }
  - { offsetInCU: 0xEDCE, offset: 0x2590C, size: 0x8, addend: 0x0, symName: __ZN9POLY_EVALC2Ev, symObjAddr: 0x2F1C, symBinAddr: 0x10000C310, symSize: 0x38 }
  - { offsetInCU: 0xEDF9, offset: 0x25937, size: 0x8, addend: 0x0, symName: __ZN13ARGUMENT_LISTC2Ev, symObjAddr: 0x2F54, symBinAddr: 0x10000C348, symSize: 0x18 }
  - { offsetInCU: 0xEE24, offset: 0x25962, size: 0x8, addend: 0x0, symName: __ZN8ARGUMENTC2Ev, symObjAddr: 0x2F6C, symBinAddr: 0x10000C360, symSize: 0x2C }
  - { offsetInCU: 0xEE4F, offset: 0x2598D, size: 0x8, addend: 0x0, symName: __ZN7PROGRAMC2Ev, symObjAddr: 0x2F98, symBinAddr: 0x10000C38C, symSize: 0x24 }
  - { offsetInCU: 0xEE7A, offset: 0x259B8, size: 0x8, addend: 0x0, symName: __ZN14STATEMENT_LISTC2Ev, symObjAddr: 0x2FBC, symBinAddr: 0x10000C3B0, symSize: 0x18 }
  - { offsetInCU: 0xEEA5, offset: 0x259E3, size: 0x8, addend: 0x0, symName: __ZN6ParserC2Ev, symObjAddr: 0x2FD4, symBinAddr: 0x10000C3C8, symSize: 0x2C }
  - { offsetInCU: 0xEED0, offset: 0x25A0E, size: 0x8, addend: 0x0, symName: __ZN6ParserD2Ev, symObjAddr: 0x3000, symBinAddr: 0x10000C3F4, symSize: 0x2C }
  - { offsetInCU: 0xEEFB, offset: 0x25A39, size: 0x8, addend: 0x0, symName: __ZN15LexicalAnalyzerD1Ev, symObjAddr: 0x302C, symBinAddr: 0x10000C420, symSize: 0x2C }
  - { offsetInCU: 0xEF26, offset: 0x25A64, size: 0x8, addend: 0x0, symName: __ZN15LexicalAnalyzerD2Ev, symObjAddr: 0x3058, symBinAddr: 0x10000C44C, symSize: 0x98 }
  - { offsetInCU: 0xEF6F, offset: 0x25AAD, size: 0x8, addend: 0x0, symName: __ZNSt3__16vectorIiNS_9allocatorIiEEE9__end_capB8ue170006Ev, symObjAddr: 0x4634, symBinAddr: 0x10000C4E4, symSize: 0x28 }
  - { offsetInCU: 0xEF99, offset: 0x25AD7, size: 0x8, addend: 0x0, symName: __ZNSt3__16vectorIiNS_9allocatorIiEEE22__construct_one_at_endB8ue170006IJiEEEvDpOT_, symObjAddr: 0x465C, symBinAddr: 0x10000C50C, symSize: 0x98 }
  - { offsetInCU: 0xEFE8, offset: 0x25B26, size: 0x8, addend: 0x0, symName: __ZNSt3__16vectorIiNS_9allocatorIiEEE21__push_back_slow_pathIiEEvOT_, symObjAddr: 0x46F4, symBinAddr: 0x10000C5A4, symSize: 0xE0 }
  - { offsetInCU: 0xF046, offset: 0x25B84, size: 0x8, addend: 0x0, symName: __ZNSt3__117__compressed_pairIPiNS_9allocatorIiEEE5firstB8ue170006Ev, symObjAddr: 0x47D4, symBinAddr: 0x10000C684, symSize: 0x24 }
  - { offsetInCU: 0xF06B, offset: 0x25BA9, size: 0x8, addend: 0x0, symName: __ZNSt3__122__compressed_pair_elemIPiLi0ELb0EE5__getB8ue170006Ev, symObjAddr: 0x47F8, symBinAddr: 0x10000C6A8, symSize: 0x14 }
  - { offsetInCU: 0xF0A9, offset: 0x25BE7, size: 0x8, addend: 0x0, symName: __ZNSt3__16vectorIiNS_9allocatorIiEEE21_ConstructTransactionC1B8ue170006ERS3_m, symObjAddr: 0x480C, symBinAddr: 0x10000C6BC, symSize: 0x3C }
  - { offsetInCU: 0xF0F0, offset: 0x25C2E, size: 0x8, addend: 0x0, symName: __ZNSt3__116allocator_traitsINS_9allocatorIiEEE9constructB8ue170006IiJiEvEEvRS2_PT_DpOT0_, symObjAddr: 0x4848, symBinAddr: 0x10000C6F8, symSize: 0x34 }
  - { offsetInCU: 0xF147, offset: 0x25C85, size: 0x8, addend: 0x0, symName: __ZNSt3__16vectorIiNS_9allocatorIiEEE7__allocB8ue170006Ev, symObjAddr: 0x487C, symBinAddr: 0x10000C72C, symSize: 0x28 }
  - { offsetInCU: 0xF16C, offset: 0x25CAA, size: 0x8, addend: 0x0, symName: __ZNSt3__16vectorIiNS_9allocatorIiEEE21_ConstructTransactionD1B8ue170006Ev, symObjAddr: 0x48B8, symBinAddr: 0x10000C768, symSize: 0x2C }
  - { offsetInCU: 0xF195, offset: 0x25CD3, size: 0x8, addend: 0x0, symName: __ZNSt3__16vectorIiNS_9allocatorIiEEE21_ConstructTransactionC2B8ue170006ERS3_m, symObjAddr: 0x48E4, symBinAddr: 0x10000C794, symSize: 0x44 }
  - { offsetInCU: 0xF1DC, offset: 0x25D1A, size: 0x8, addend: 0x0, symName: __ZNSt3__19allocatorIiE9constructB8ue170006IiJiEEEvPT_DpOT0_, symObjAddr: 0x4928, symBinAddr: 0x10000C7D8, symSize: 0x28 }
  - { offsetInCU: 0xF231, offset: 0x25D6F, size: 0x8, addend: 0x0, symName: __ZNSt3__117__compressed_pairIPiNS_9allocatorIiEEE6secondB8ue170006Ev, symObjAddr: 0x4950, symBinAddr: 0x10000C800, symSize: 0x24 }
  - { offsetInCU: 0xF256, offset: 0x25D94, size: 0x8, addend: 0x0, symName: __ZNSt3__122__compressed_pair_elemINS_9allocatorIiEELi1ELb1EE5__getB8ue170006Ev, symObjAddr: 0x4974, symBinAddr: 0x10000C824, symSize: 0x14 }
  - { offsetInCU: 0xF27B, offset: 0x25DB9, size: 0x8, addend: 0x0, symName: __ZNSt3__16vectorIiNS_9allocatorIiEEE21_ConstructTransactionD2B8ue170006Ev, symObjAddr: 0x4988, symBinAddr: 0x10000C838, symSize: 0x20 }
  - { offsetInCU: 0xF2A4, offset: 0x25DE2, size: 0x8, addend: 0x0, symName: __ZNKSt3__16vectorIiNS_9allocatorIiEEE11__recommendB8ue170006Em, symObjAddr: 0x49A8, symBinAddr: 0x10000C858, symSize: 0xB4 }
  - { offsetInCU: 0xF2F9, offset: 0x25E37, size: 0x8, addend: 0x0, symName: __ZNKSt3__16vectorIiNS_9allocatorIiEEE4sizeB8ue170006Ev, symObjAddr: 0x4A5C, symBinAddr: 0x10000C90C, symSize: 0x28 }
  - { offsetInCU: 0xF31E, offset: 0x25E5C, size: 0x8, addend: 0x0, symName: __ZNSt3__114__split_bufferIiRNS_9allocatorIiEEEC1EmmS3_, symObjAddr: 0x4A84, symBinAddr: 0x10000C934, symSize: 0x44 }
  - { offsetInCU: 0xF373, offset: 0x25EB1, size: 0x8, addend: 0x0, symName: __ZNSt3__114__split_bufferIiRNS_9allocatorIiEEED1Ev, symObjAddr: 0x4BD8, symBinAddr: 0x10000CA88, symSize: 0x2C }
  - { offsetInCU: 0xF39E, offset: 0x25EDC, size: 0x8, addend: 0x0, symName: __ZNKSt3__16vectorIiNS_9allocatorIiEEE8max_sizeEv, symObjAddr: 0x4C04, symBinAddr: 0x10000CAB4, symSize: 0x74 }
  - { offsetInCU: 0xF3C4, offset: 0x25F02, size: 0x8, addend: 0x0, symName: __ZNKSt3__16vectorIiNS_9allocatorIiEEE20__throw_length_errorB8ue170006Ev, symObjAddr: 0x4C78, symBinAddr: 0x10000CB28, symSize: 0x1C }
  - { offsetInCU: 0xF3E9, offset: 0x25F27, size: 0x8, addend: 0x0, symName: __ZNKSt3__16vectorIiNS_9allocatorIiEEE8capacityB8ue170006Ev, symObjAddr: 0x4C94, symBinAddr: 0x10000CB44, symSize: 0x40 }
  - { offsetInCU: 0xF418, offset: 0x25F56, size: 0x8, addend: 0x0, symName: __ZNSt3__116allocator_traitsINS_9allocatorIiEEE8max_sizeB8ue170006IS2_vEEmRKS2_, symObjAddr: 0x4D2C, symBinAddr: 0x10000CB84, symSize: 0x24 }
  - { offsetInCU: 0xF446, offset: 0x25F84, size: 0x8, addend: 0x0, symName: __ZNKSt3__16vectorIiNS_9allocatorIiEEE7__allocB8ue170006Ev, symObjAddr: 0x4D50, symBinAddr: 0x10000CBA8, symSize: 0x28 }
  - { offsetInCU: 0xF46B, offset: 0x25FA9, size: 0x8, addend: 0x0, symName: __ZNKSt3__19allocatorIiE8max_sizeB8ue170006Ev, symObjAddr: 0x4E14, symBinAddr: 0x10000CBD0, symSize: 0x14 }
  - { offsetInCU: 0xF490, offset: 0x25FCE, size: 0x8, addend: 0x0, symName: __ZNKSt3__117__compressed_pairIPiNS_9allocatorIiEEE6secondB8ue170006Ev, symObjAddr: 0x4E28, symBinAddr: 0x10000CBE4, symSize: 0x24 }
  - { offsetInCU: 0xF4B5, offset: 0x25FF3, size: 0x8, addend: 0x0, symName: __ZNKSt3__122__compressed_pair_elemINS_9allocatorIiEELi1ELb1EE5__getB8ue170006Ev, symObjAddr: 0x4E4C, symBinAddr: 0x10000CC08, symSize: 0x14 }
  - { offsetInCU: 0xF4DA, offset: 0x26018, size: 0x8, addend: 0x0, symName: __ZNKSt3__16vectorIiNS_9allocatorIiEEE9__end_capB8ue170006Ev, symObjAddr: 0x4F4C, symBinAddr: 0x10000CC1C, symSize: 0x28 }
  - { offsetInCU: 0xF4FF, offset: 0x2603D, size: 0x8, addend: 0x0, symName: __ZNKSt3__117__compressed_pairIPiNS_9allocatorIiEEE5firstB8ue170006Ev, symObjAddr: 0x4F74, symBinAddr: 0x10000CC44, symSize: 0x24 }
  - { offsetInCU: 0xF524, offset: 0x26062, size: 0x8, addend: 0x0, symName: __ZNKSt3__122__compressed_pair_elemIPiLi0ELb0EE5__getB8ue170006Ev, symObjAddr: 0x4F98, symBinAddr: 0x10000CC68, symSize: 0x14 }
  - { offsetInCU: 0xF549, offset: 0x26087, size: 0x8, addend: 0x0, symName: __ZNSt3__114__split_bufferIiRNS_9allocatorIiEEEC2EmmS3_, symObjAddr: 0x5000, symBinAddr: 0x10000CC7C, symSize: 0xD4 }
  - { offsetInCU: 0xF5C2, offset: 0x26100, size: 0x8, addend: 0x0, symName: __ZNSt3__117__compressed_pairIPiRNS_9allocatorIiEEEC1B8ue170006IDnS4_EEOT_OT0_, symObjAddr: 0x50D4, symBinAddr: 0x10000CD50, symSize: 0x3C }
  - { offsetInCU: 0xF619, offset: 0x26157, size: 0x8, addend: 0x0, symName: __ZNSt3__114__split_bufferIiRNS_9allocatorIiEEE7__allocB8ue170006Ev, symObjAddr: 0x5150, symBinAddr: 0x10000CDCC, symSize: 0x28 }
  - { offsetInCU: 0xF63E, offset: 0x2617C, size: 0x8, addend: 0x0, symName: __ZNSt3__114__split_bufferIiRNS_9allocatorIiEEE9__end_capB8ue170006Ev, symObjAddr: 0x5178, symBinAddr: 0x10000CDF4, symSize: 0x28 }
  - { offsetInCU: 0xF663, offset: 0x261A1, size: 0x8, addend: 0x0, symName: __ZNSt3__117__compressed_pairIPiRNS_9allocatorIiEEEC2B8ue170006IDnS4_EEOT_OT0_, symObjAddr: 0x51A0, symBinAddr: 0x10000CE1C, symSize: 0x48 }
  - { offsetInCU: 0xF6BA, offset: 0x261F8, size: 0x8, addend: 0x0, symName: __ZNSt3__122__compressed_pair_elemIPiLi0ELb0EEC2B8ue170006IDnvEEOT_, symObjAddr: 0x51E8, symBinAddr: 0x10000CE64, symSize: 0x1C }
  - { offsetInCU: 0xF6FB, offset: 0x26239, size: 0x8, addend: 0x0, symName: __ZNSt3__122__compressed_pair_elemIRNS_9allocatorIiEELi1ELb0EEC2B8ue170006IS3_vEEOT_, symObjAddr: 0x5204, symBinAddr: 0x10000CE80, symSize: 0x20 }
  - { offsetInCU: 0xF73C, offset: 0x2627A, size: 0x8, addend: 0x0, symName: __ZNSt3__19allocatorIiE8allocateB8ue170006Em, symObjAddr: 0x5224, symBinAddr: 0x10000CEA0, symSize: 0x84 }
  - { offsetInCU: 0xF76F, offset: 0x262AD, size: 0x8, addend: 0x0, symName: __ZNSt3__117__compressed_pairIPiRNS_9allocatorIiEEE6secondB8ue170006Ev, symObjAddr: 0x5328, symBinAddr: 0x10000CF24, symSize: 0x28 }
  - { offsetInCU: 0xF794, offset: 0x262D2, size: 0x8, addend: 0x0, symName: __ZNSt3__122__compressed_pair_elemIRNS_9allocatorIiEELi1ELb0EE5__getB8ue170006Ev, symObjAddr: 0x5350, symBinAddr: 0x10000CF4C, symSize: 0x18 }
  - { offsetInCU: 0xF7B9, offset: 0x262F7, size: 0x8, addend: 0x0, symName: __ZNSt3__117__compressed_pairIPiRNS_9allocatorIiEEE5firstB8ue170006Ev, symObjAddr: 0x5368, symBinAddr: 0x10000CF64, symSize: 0x24 }
  - { offsetInCU: 0xF7DE, offset: 0x2631C, size: 0x8, addend: 0x0, symName: __ZNKSt3__16vectorIiNS_9allocatorIiEEE17__annotate_deleteB8ue170006Ev, symObjAddr: 0x538C, symBinAddr: 0x10000CF88, symSize: 0xB8 }
  - { offsetInCU: 0xF803, offset: 0x26341, size: 0x8, addend: 0x0, symName: __ZNSt3__116reverse_iteratorIPiEC1B8ue170006ES1_, symObjAddr: 0x552C, symBinAddr: 0x10000D128, symSize: 0x34 }
  - { offsetInCU: 0xF83A, offset: 0x26378, size: 0x8, addend: 0x0, symName: __ZNKSt3__116reverse_iteratorIPiE4baseB8ue170006Ev, symObjAddr: 0x5560, symBinAddr: 0x10000D15C, symSize: 0x18 }
  - { offsetInCU: 0xF85F, offset: 0x2639D, size: 0x8, addend: 0x0, symName: __ZNKSt3__16vectorIiNS_9allocatorIiEEE14__annotate_newB8ue170006Em, symObjAddr: 0x55B4, symBinAddr: 0x10000D1B0, symSize: 0xAC }
  - { offsetInCU: 0xF893, offset: 0x263D1, size: 0x8, addend: 0x0, symName: __ZNKSt3__16vectorIiNS_9allocatorIiEEE31__annotate_contiguous_containerB8ue170006EPKvS5_S5_S5_, symObjAddr: 0x5660, symBinAddr: 0x10000D25C, symSize: 0x20 }
  - { offsetInCU: 0xF8E4, offset: 0x26422, size: 0x8, addend: 0x0, symName: __ZNKSt3__16vectorIiNS_9allocatorIiEEE4dataB8ue170006Ev, symObjAddr: 0x5680, symBinAddr: 0x10000D27C, symSize: 0x28 }
  - { offsetInCU: 0xF909, offset: 0x26447, size: 0x8, addend: 0x0, symName: __ZNKSt3__116reverse_iteratorIPiEdeB8ue170006Ev, symObjAddr: 0x5740, symBinAddr: 0x10000D33C, symSize: 0x28 }
  - { offsetInCU: 0xF93C, offset: 0x2647A, size: 0x8, addend: 0x0, symName: __ZNSt3__116reverse_iteratorIPiEppB8ue170006Ev, symObjAddr: 0x5768, symBinAddr: 0x10000D364, symSize: 0x20 }
  - { offsetInCU: 0xF966, offset: 0x264A4, size: 0x8, addend: 0x0, symName: __ZNSt3__119__to_address_helperINS_16reverse_iteratorIPiEEvE6__callB8ue170006ERKS3_, symObjAddr: 0x5800, symBinAddr: 0x10000D3FC, symSize: 0x4C }
  - { offsetInCU: 0xF989, offset: 0x264C7, size: 0x8, addend: 0x0, symName: __ZNKSt3__116reverse_iteratorIPiEptB8ue170006Ev, symObjAddr: 0x584C, symBinAddr: 0x10000D448, symSize: 0x24 }
  - { offsetInCU: 0xF9D1, offset: 0x2650F, size: 0x8, addend: 0x0, symName: __ZNKSt3__111__move_loopINS_17_ClassicAlgPolicyEEclB8ue170006INS_16reverse_iteratorIPiEES6_S6_EENS_4pairIT_T1_EES8_T0_S9_, symObjAddr: 0x5AE8, symBinAddr: 0x10000D6E4, symSize: 0xA0 }
  - { offsetInCU: 0xFA3B, offset: 0x26579, size: 0x8, addend: 0x0, symName: __ZNSt3__18_IterOpsINS_17_ClassicAlgPolicyEE11__iter_moveB8ue170006IRNS_16reverse_iteratorIPiEEEENS_9enable_ifIXsr12is_referenceIDTdeclsr3stdE7declvalIRT_EEEEE5valueEDTclsr3stdE4movedeclsr3stdE7declvalISA_EEEEE4typeEOS9_, symObjAddr: 0x5CE8, symBinAddr: 0x10000D8E4, symSize: 0x28 }
  - { offsetInCU: 0xFA67, offset: 0x265A5, size: 0x8, addend: 0x0, symName: __ZNSt3__18_IterOpsINS_17_ClassicAlgPolicyEE25__validate_iter_referenceB8ue170006IRNS_16reverse_iteratorIPiEEEEvv, symObjAddr: 0x5D10, symBinAddr: 0x10000D90C, symSize: 0x4 }
  - { offsetInCU: 0xFA85, offset: 0x265C3, size: 0x8, addend: 0x0, symName: __ZNSt3__118__unwrap_iter_implINS_16reverse_iteratorIPiEELb0EE8__unwrapB8ue170006ES3_, symObjAddr: 0x5D14, symBinAddr: 0x10000D910, symSize: 0x24 }
  - { offsetInCU: 0xFAA8, offset: 0x265E6, size: 0x8, addend: 0x0, symName: __ZNSt3__14pairINS_16reverse_iteratorIPiEES3_EC1B8ue170006ERKS3_S6_, symObjAddr: 0x5D38, symBinAddr: 0x10000D934, symSize: 0x3C }
  - { offsetInCU: 0xFAED, offset: 0x2662B, size: 0x8, addend: 0x0, symName: __ZNSt3__14pairINS_16reverse_iteratorIPiEES3_EC2B8ue170006ERKS3_S6_, symObjAddr: 0x5D74, symBinAddr: 0x10000D970, symSize: 0x34 }
  - { offsetInCU: 0xFB32, offset: 0x26670, size: 0x8, addend: 0x0, symName: __ZNSt3__118__unwrap_iter_implINS_16reverse_iteratorIPiEELb0EE8__rewrapB8ue170006ES3_S3_, symObjAddr: 0x5DA8, symBinAddr: 0x10000D9A4, symSize: 0x2C }
  - { offsetInCU: 0xFB60, offset: 0x2669E, size: 0x8, addend: 0x0, symName: __ZNSt3__116reverse_iteratorIPiEC2B8ue170006ES1_, symObjAddr: 0x5DD4, symBinAddr: 0x10000D9D0, symSize: 0x28 }
  - { offsetInCU: 0xFB97, offset: 0x266D5, size: 0x8, addend: 0x0, symName: __ZNSt3__114__split_bufferIiRNS_9allocatorIiEEED2Ev, symObjAddr: 0x5DFC, symBinAddr: 0x10000D9F8, symSize: 0x80 }
  - { offsetInCU: 0xFBC2, offset: 0x26700, size: 0x8, addend: 0x0, symName: __ZNSt3__114__split_bufferIiRNS_9allocatorIiEEE5clearB8ue170006Ev, symObjAddr: 0x5E7C, symBinAddr: 0x10000DA78, symSize: 0x28 }
  - { offsetInCU: 0xFBE7, offset: 0x26725, size: 0x8, addend: 0x0, symName: __ZNSt3__116allocator_traitsINS_9allocatorIiEEE10deallocateB8ue170006ERS2_Pim, symObjAddr: 0x5EA4, symBinAddr: 0x10000DAA0, symSize: 0x34 }
  - { offsetInCU: 0xFC29, offset: 0x26767, size: 0x8, addend: 0x0, symName: __ZNKSt3__114__split_bufferIiRNS_9allocatorIiEEE8capacityB8ue170006Ev, symObjAddr: 0x5ED8, symBinAddr: 0x10000DAD4, symSize: 0x40 }
  - { offsetInCU: 0xFC4E, offset: 0x2678C, size: 0x8, addend: 0x0, symName: __ZNSt3__114__split_bufferIiRNS_9allocatorIiEEE17__destruct_at_endB8ue170006EPi, symObjAddr: 0x5F18, symBinAddr: 0x10000DB14, symSize: 0x2C }
  - { offsetInCU: 0xFC81, offset: 0x267BF, size: 0x8, addend: 0x0, symName: __ZNSt3__114__split_bufferIiRNS_9allocatorIiEEE17__destruct_at_endB8ue170006EPiNS_17integral_constantIbLb0EEE, symObjAddr: 0x5F44, symBinAddr: 0x10000DB40, symSize: 0x94 }
  - { offsetInCU: 0xFCC0, offset: 0x267FE, size: 0x8, addend: 0x0, symName: __ZNSt3__116allocator_traitsINS_9allocatorIiEEE7destroyB8ue170006IivEEvRS2_PT_, symObjAddr: 0x5FD8, symBinAddr: 0x10000DBD4, symSize: 0x2C }
  - { offsetInCU: 0xFCFD, offset: 0x2683B, size: 0x8, addend: 0x0, symName: __ZNSt3__19allocatorIiE7destroyB8ue170006EPi, symObjAddr: 0x6004, symBinAddr: 0x10000DC00, symSize: 0x14 }
  - { offsetInCU: 0xFD30, offset: 0x2686E, size: 0x8, addend: 0x0, symName: __ZNSt3__19allocatorIiE10deallocateB8ue170006EPim, symObjAddr: 0x6018, symBinAddr: 0x10000DC14, symSize: 0x70 }
  - { offsetInCU: 0xFD71, offset: 0x268AF, size: 0x8, addend: 0x0, symName: __ZNKSt3__114__split_bufferIiRNS_9allocatorIiEEE9__end_capB8ue170006Ev, symObjAddr: 0x6088, symBinAddr: 0x10000DC84, symSize: 0x28 }
  - { offsetInCU: 0xFD96, offset: 0x268D4, size: 0x8, addend: 0x0, symName: __ZNKSt3__117__compressed_pairIPiRNS_9allocatorIiEEE5firstB8ue170006Ev, symObjAddr: 0x60B0, symBinAddr: 0x10000DCAC, symSize: 0x24 }
  - { offsetInCU: 0xFDBB, offset: 0x268F9, size: 0x8, addend: 0x0, symName: __ZNSt3__16vectorI9POLY_DECLNS_9allocatorIS1_EEE9__end_capB8ue170006Ev, symObjAddr: 0x6184, symBinAddr: 0x10000DCD0, symSize: 0x28 }
  - { offsetInCU: 0xFDE0, offset: 0x2691E, size: 0x8, addend: 0x0, symName: __ZNSt3__16vectorI9POLY_DECLNS_9allocatorIS1_EEE22__construct_one_at_endB8ue170006IJRKS1_EEEvDpOT_, symObjAddr: 0x61AC, symBinAddr: 0x10000DCF8, symSize: 0x98 }
  - { offsetInCU: 0xFE2F, offset: 0x2696D, size: 0x8, addend: 0x0, symName: __ZNSt3__16vectorI9POLY_DECLNS_9allocatorIS1_EEE21__push_back_slow_pathIRKS1_EEvOT_, symObjAddr: 0x6244, symBinAddr: 0x10000DD90, symSize: 0xE0 }
  - { offsetInCU: 0xFE8D, offset: 0x269CB, size: 0x8, addend: 0x0, symName: __ZNSt3__117__compressed_pairIP9POLY_DECLNS_9allocatorIS1_EEE5firstB8ue170006Ev, symObjAddr: 0x6324, symBinAddr: 0x10000DE70, symSize: 0x24 }
  - { offsetInCU: 0xFEB2, offset: 0x269F0, size: 0x8, addend: 0x0, symName: __ZNSt3__122__compressed_pair_elemIP9POLY_DECLLi0ELb0EE5__getB8ue170006Ev, symObjAddr: 0x6348, symBinAddr: 0x10000DE94, symSize: 0x14 }
  - { offsetInCU: 0xFEF0, offset: 0x26A2E, size: 0x8, addend: 0x0, symName: __ZNSt3__16vectorI9POLY_DECLNS_9allocatorIS1_EEE21_ConstructTransactionC1B8ue170006ERS4_m, symObjAddr: 0x635C, symBinAddr: 0x10000DEA8, symSize: 0x3C }
  - { offsetInCU: 0xFF37, offset: 0x26A75, size: 0x8, addend: 0x0, symName: __ZNSt3__116allocator_traitsINS_9allocatorI9POLY_DECLEEE9constructB8ue170006IS2_JRKS2_EvEEvRS3_PT_DpOT0_, symObjAddr: 0x6398, symBinAddr: 0x10000DEE4, symSize: 0x34 }
  - { offsetInCU: 0xFF8E, offset: 0x26ACC, size: 0x8, addend: 0x0, symName: __ZNSt3__16vectorI9POLY_DECLNS_9allocatorIS1_EEE7__allocB8ue170006Ev, symObjAddr: 0x63CC, symBinAddr: 0x10000DF18, symSize: 0x28 }
  - { offsetInCU: 0xFFB3, offset: 0x26AF1, size: 0x8, addend: 0x0, symName: __ZNSt3__16vectorI9POLY_DECLNS_9allocatorIS1_EEE21_ConstructTransactionD1B8ue170006Ev, symObjAddr: 0x6408, symBinAddr: 0x10000DF54, symSize: 0x2C }
  - { offsetInCU: 0xFFDC, offset: 0x26B1A, size: 0x8, addend: 0x0, symName: __ZNSt3__16vectorI9POLY_DECLNS_9allocatorIS1_EEE21_ConstructTransactionC2B8ue170006ERS4_m, symObjAddr: 0x6434, symBinAddr: 0x10000DF80, symSize: 0x4C }
  - { offsetInCU: 0x10023, offset: 0x26B61, size: 0x8, addend: 0x0, symName: __ZNSt3__19allocatorI9POLY_DECLE9constructB8ue170006IS1_JRKS1_EEEvPT_DpOT0_, symObjAddr: 0x6480, symBinAddr: 0x10000DFCC, symSize: 0x30 }
  - { offsetInCU: 0x10078, offset: 0x26BB6, size: 0x8, addend: 0x0, symName: __ZN9POLY_DECLC1ERKS_, symObjAddr: 0x64B0, symBinAddr: 0x10000DFFC, symSize: 0x34 }
  - { offsetInCU: 0x100AC, offset: 0x26BEA, size: 0x8, addend: 0x0, symName: __ZN9POLY_DECLC2ERKS_, symObjAddr: 0x64E4, symBinAddr: 0x10000E030, symSize: 0x48 }
  - { offsetInCU: 0x100E0, offset: 0x26C1E, size: 0x8, addend: 0x0, symName: __ZNSt3__117__compressed_pairIP9POLY_DECLNS_9allocatorIS1_EEE6secondB8ue170006Ev, symObjAddr: 0x652C, symBinAddr: 0x10000E078, symSize: 0x24 }
  - { offsetInCU: 0x10105, offset: 0x26C43, size: 0x8, addend: 0x0, symName: __ZNSt3__122__compressed_pair_elemINS_9allocatorI9POLY_DECLEELi1ELb1EE5__getB8ue170006Ev, symObjAddr: 0x6550, symBinAddr: 0x10000E09C, symSize: 0x14 }
  - { offsetInCU: 0x1012A, offset: 0x26C68, size: 0x8, addend: 0x0, symName: __ZNSt3__16vectorI9POLY_DECLNS_9allocatorIS1_EEE21_ConstructTransactionD2B8ue170006Ev, symObjAddr: 0x6564, symBinAddr: 0x10000E0B0, symSize: 0x20 }
  - { offsetInCU: 0x10153, offset: 0x26C91, size: 0x8, addend: 0x0, symName: __ZNKSt3__16vectorI9POLY_DECLNS_9allocatorIS1_EEE11__recommendB8ue170006Em, symObjAddr: 0x6584, symBinAddr: 0x10000E0D0, symSize: 0xB4 }
  - { offsetInCU: 0x101A8, offset: 0x26CE6, size: 0x8, addend: 0x0, symName: __ZNKSt3__16vectorI9POLY_DECLNS_9allocatorIS1_EEE4sizeB8ue170006Ev, symObjAddr: 0x6638, symBinAddr: 0x10000E184, symSize: 0x28 }
  - { offsetInCU: 0x101CD, offset: 0x26D0B, size: 0x8, addend: 0x0, symName: __ZNSt3__114__split_bufferI9POLY_DECLRNS_9allocatorIS1_EEEC1EmmS4_, symObjAddr: 0x6660, symBinAddr: 0x10000E1AC, symSize: 0x44 }
  - { offsetInCU: 0x10222, offset: 0x26D60, size: 0x8, addend: 0x0, symName: __ZNSt3__114__split_bufferI9POLY_DECLRNS_9allocatorIS1_EEED1Ev, symObjAddr: 0x67B4, symBinAddr: 0x10000E300, symSize: 0x2C }
  - { offsetInCU: 0x1024D, offset: 0x26D8B, size: 0x8, addend: 0x0, symName: __ZNKSt3__16vectorI9POLY_DECLNS_9allocatorIS1_EEE8max_sizeEv, symObjAddr: 0x67E0, symBinAddr: 0x10000E32C, symSize: 0x74 }
  - { offsetInCU: 0x10273, offset: 0x26DB1, size: 0x8, addend: 0x0, symName: __ZNKSt3__16vectorI9POLY_DECLNS_9allocatorIS1_EEE20__throw_length_errorB8ue170006Ev, symObjAddr: 0x6854, symBinAddr: 0x10000E3A0, symSize: 0x1C }
  - { offsetInCU: 0x10298, offset: 0x26DD6, size: 0x8, addend: 0x0, symName: __ZNKSt3__16vectorI9POLY_DECLNS_9allocatorIS1_EEE8capacityB8ue170006Ev, symObjAddr: 0x6870, symBinAddr: 0x10000E3BC, symSize: 0x40 }
  - { offsetInCU: 0x102C7, offset: 0x26E05, size: 0x8, addend: 0x0, symName: __ZNSt3__116allocator_traitsINS_9allocatorI9POLY_DECLEEE8max_sizeB8ue170006IS3_vEEmRKS3_, symObjAddr: 0x68B0, symBinAddr: 0x10000E3FC, symSize: 0x24 }
  - { offsetInCU: 0x102F5, offset: 0x26E33, size: 0x8, addend: 0x0, symName: __ZNKSt3__16vectorI9POLY_DECLNS_9allocatorIS1_EEE7__allocB8ue170006Ev, symObjAddr: 0x68D4, symBinAddr: 0x10000E420, symSize: 0x28 }
  - { offsetInCU: 0x1031A, offset: 0x26E58, size: 0x8, addend: 0x0, symName: __ZNKSt3__19allocatorI9POLY_DECLE8max_sizeB8ue170006Ev, symObjAddr: 0x68FC, symBinAddr: 0x10000E448, symSize: 0x18 }
  - { offsetInCU: 0x1033F, offset: 0x26E7D, size: 0x8, addend: 0x0, symName: __ZNKSt3__117__compressed_pairIP9POLY_DECLNS_9allocatorIS1_EEE6secondB8ue170006Ev, symObjAddr: 0x6914, symBinAddr: 0x10000E460, symSize: 0x24 }
  - { offsetInCU: 0x10364, offset: 0x26EA2, size: 0x8, addend: 0x0, symName: __ZNKSt3__122__compressed_pair_elemINS_9allocatorI9POLY_DECLEELi1ELb1EE5__getB8ue170006Ev, symObjAddr: 0x6938, symBinAddr: 0x10000E484, symSize: 0x14 }
  - { offsetInCU: 0x10389, offset: 0x26EC7, size: 0x8, addend: 0x0, symName: __ZNKSt3__16vectorI9POLY_DECLNS_9allocatorIS1_EEE9__end_capB8ue170006Ev, symObjAddr: 0x694C, symBinAddr: 0x10000E498, symSize: 0x28 }
  - { offsetInCU: 0x103AE, offset: 0x26EEC, size: 0x8, addend: 0x0, symName: __ZNKSt3__117__compressed_pairIP9POLY_DECLNS_9allocatorIS1_EEE5firstB8ue170006Ev, symObjAddr: 0x6974, symBinAddr: 0x10000E4C0, symSize: 0x24 }
  - { offsetInCU: 0x103D3, offset: 0x26F11, size: 0x8, addend: 0x0, symName: __ZNKSt3__122__compressed_pair_elemIP9POLY_DECLLi0ELb0EE5__getB8ue170006Ev, symObjAddr: 0x6998, symBinAddr: 0x10000E4E4, symSize: 0x14 }
  - { offsetInCU: 0x103F8, offset: 0x26F36, size: 0x8, addend: 0x0, symName: __ZNSt3__114__split_bufferI9POLY_DECLRNS_9allocatorIS1_EEEC2EmmS4_, symObjAddr: 0x69AC, symBinAddr: 0x10000E4F8, symSize: 0xE0 }
  - { offsetInCU: 0x1046C, offset: 0x26FAA, size: 0x8, addend: 0x0, symName: __ZNSt3__117__compressed_pairIP9POLY_DECLRNS_9allocatorIS1_EEEC1B8ue170006IDnS5_EEOT_OT0_, symObjAddr: 0x6A8C, symBinAddr: 0x10000E5D8, symSize: 0x3C }
  - { offsetInCU: 0x104C3, offset: 0x27001, size: 0x8, addend: 0x0, symName: __ZNSt3__114__split_bufferI9POLY_DECLRNS_9allocatorIS1_EEE7__allocB8ue170006Ev, symObjAddr: 0x6B08, symBinAddr: 0x10000E654, symSize: 0x28 }
  - { offsetInCU: 0x104E8, offset: 0x27026, size: 0x8, addend: 0x0, symName: __ZNSt3__114__split_bufferI9POLY_DECLRNS_9allocatorIS1_EEE9__end_capB8ue170006Ev, symObjAddr: 0x6B30, symBinAddr: 0x10000E67C, symSize: 0x28 }
  - { offsetInCU: 0x1050D, offset: 0x2704B, size: 0x8, addend: 0x0, symName: __ZNSt3__117__compressed_pairIP9POLY_DECLRNS_9allocatorIS1_EEEC2B8ue170006IDnS5_EEOT_OT0_, symObjAddr: 0x6B58, symBinAddr: 0x10000E6A4, symSize: 0x48 }
  - { offsetInCU: 0x10564, offset: 0x270A2, size: 0x8, addend: 0x0, symName: __ZNSt3__122__compressed_pair_elemIP9POLY_DECLLi0ELb0EEC2B8ue170006IDnvEEOT_, symObjAddr: 0x6BA0, symBinAddr: 0x10000E6EC, symSize: 0x1C }
  - { offsetInCU: 0x105A5, offset: 0x270E3, size: 0x8, addend: 0x0, symName: __ZNSt3__122__compressed_pair_elemIRNS_9allocatorI9POLY_DECLEELi1ELb0EEC2B8ue170006IS4_vEEOT_, symObjAddr: 0x6BBC, symBinAddr: 0x10000E708, symSize: 0x20 }
  - { offsetInCU: 0x105E6, offset: 0x27124, size: 0x8, addend: 0x0, symName: __ZNSt3__19allocatorI9POLY_DECLE8allocateB8ue170006Em, symObjAddr: 0x6BDC, symBinAddr: 0x10000E728, symSize: 0x8C }
  - { offsetInCU: 0x10619, offset: 0x27157, size: 0x8, addend: 0x0, symName: __ZNSt3__117__compressed_pairIP9POLY_DECLRNS_9allocatorIS1_EEE6secondB8ue170006Ev, symObjAddr: 0x6C68, symBinAddr: 0x10000E7B4, symSize: 0x28 }
  - { offsetInCU: 0x1063E, offset: 0x2717C, size: 0x8, addend: 0x0, symName: __ZNSt3__122__compressed_pair_elemIRNS_9allocatorI9POLY_DECLEELi1ELb0EE5__getB8ue170006Ev, symObjAddr: 0x6C90, symBinAddr: 0x10000E7DC, symSize: 0x18 }
  - { offsetInCU: 0x10663, offset: 0x271A1, size: 0x8, addend: 0x0, symName: __ZNSt3__117__compressed_pairIP9POLY_DECLRNS_9allocatorIS1_EEE5firstB8ue170006Ev, symObjAddr: 0x6CA8, symBinAddr: 0x10000E7F4, symSize: 0x24 }
  - { offsetInCU: 0x10688, offset: 0x271C6, size: 0x8, addend: 0x0, symName: __ZNKSt3__16vectorI9POLY_DECLNS_9allocatorIS1_EEE17__annotate_deleteB8ue170006Ev, symObjAddr: 0x6CCC, symBinAddr: 0x10000E818, symSize: 0xD4 }
  - { offsetInCU: 0x106AD, offset: 0x271EB, size: 0x8, addend: 0x0, symName: __ZNSt3__116reverse_iteratorIP9POLY_DECLEC1B8ue170006ES2_, symObjAddr: 0x6ED4, symBinAddr: 0x10000EA20, symSize: 0x34 }
  - { offsetInCU: 0x106E4, offset: 0x27222, size: 0x8, addend: 0x0, symName: __ZNKSt3__116reverse_iteratorIP9POLY_DECLE4baseB8ue170006Ev, symObjAddr: 0x6F08, symBinAddr: 0x10000EA54, symSize: 0x18 }
  - { offsetInCU: 0x10709, offset: 0x27247, size: 0x8, addend: 0x0, symName: __ZNKSt3__16vectorI9POLY_DECLNS_9allocatorIS1_EEE14__annotate_newB8ue170006Em, symObjAddr: 0x6F5C, symBinAddr: 0x10000EAA8, symSize: 0xC8 }
  - { offsetInCU: 0x1073D, offset: 0x2727B, size: 0x8, addend: 0x0, symName: __ZNKSt3__16vectorI9POLY_DECLNS_9allocatorIS1_EEE31__annotate_contiguous_containerB8ue170006EPKvS6_S6_S6_, symObjAddr: 0x7024, symBinAddr: 0x10000EB70, symSize: 0x20 }
  - { offsetInCU: 0x1078E, offset: 0x272CC, size: 0x8, addend: 0x0, symName: __ZNKSt3__16vectorI9POLY_DECLNS_9allocatorIS1_EEE4dataB8ue170006Ev, symObjAddr: 0x7044, symBinAddr: 0x10000EB90, symSize: 0x28 }
  - { offsetInCU: 0x107B3, offset: 0x272F1, size: 0x8, addend: 0x0, symName: __ZNSt3__129_AllocatorDestroyRangeReverseINS_9allocatorI9POLY_DECLEENS_16reverse_iteratorIPS2_EEEC1B8ue170006ERS3_RS6_S9_, symObjAddr: 0x70B8, symBinAddr: 0x10000EC04, symSize: 0x44 }
  - { offsetInCU: 0x10809, offset: 0x27347, size: 0x8, addend: 0x0, symName: __ZNKSt3__116reverse_iteratorIP9POLY_DECLEdeB8ue170006Ev, symObjAddr: 0x7168, symBinAddr: 0x10000ECB4, symSize: 0x28 }
  - { offsetInCU: 0x1083C, offset: 0x2737A, size: 0x8, addend: 0x0, symName: __ZNSt3__116reverse_iteratorIP9POLY_DECLEppB8ue170006Ev, symObjAddr: 0x7190, symBinAddr: 0x10000ECDC, symSize: 0x20 }
  - { offsetInCU: 0x10861, offset: 0x2739F, size: 0x8, addend: 0x0, symName: __ZNSt3__128__exception_guard_exceptionsINS_29_AllocatorDestroyRangeReverseINS_9allocatorI9POLY_DECLEENS_16reverse_iteratorIPS3_EEEEE10__completeB8ue170006Ev, symObjAddr: 0x71B0, symBinAddr: 0x10000ECFC, symSize: 0x1C }
  - { offsetInCU: 0x10886, offset: 0x273C4, size: 0x8, addend: 0x0, symName: __ZNSt3__128__exception_guard_exceptionsINS_29_AllocatorDestroyRangeReverseINS_9allocatorI9POLY_DECLEENS_16reverse_iteratorIPS3_EEEEED1B8ue170006Ev, symObjAddr: 0x71CC, symBinAddr: 0x10000ED18, symSize: 0x2C }
  - { offsetInCU: 0x108AF, offset: 0x273ED, size: 0x8, addend: 0x0, symName: __ZNSt3__128__exception_guard_exceptionsINS_29_AllocatorDestroyRangeReverseINS_9allocatorI9POLY_DECLEENS_16reverse_iteratorIPS3_EEEEEC1B8ue170006ES8_, symObjAddr: 0x71F8, symBinAddr: 0x10000ED44, symSize: 0x34 }
  - { offsetInCU: 0x108E7, offset: 0x27425, size: 0x8, addend: 0x0, symName: __ZNSt3__128__exception_guard_exceptionsINS_29_AllocatorDestroyRangeReverseINS_9allocatorI9POLY_DECLEENS_16reverse_iteratorIPS3_EEEEEC2B8ue170006ES8_, symObjAddr: 0x722C, symBinAddr: 0x10000ED78, symSize: 0x30 }
  - { offsetInCU: 0x1091F, offset: 0x2745D, size: 0x8, addend: 0x0, symName: __ZNSt3__129_AllocatorDestroyRangeReverseINS_9allocatorI9POLY_DECLEENS_16reverse_iteratorIPS2_EEEC2B8ue170006ERS3_RS6_S9_, symObjAddr: 0x725C, symBinAddr: 0x10000EDA8, symSize: 0x38 }
  - { offsetInCU: 0x1097A, offset: 0x274B8, size: 0x8, addend: 0x0, symName: __ZNSt3__119__to_address_helperINS_16reverse_iteratorIP9POLY_DECLEEvE6__callB8ue170006ERKS4_, symObjAddr: 0x7294, symBinAddr: 0x10000EDE0, symSize: 0x4C }
  - { offsetInCU: 0x1099D, offset: 0x274DB, size: 0x8, addend: 0x0, symName: __ZNKSt3__116reverse_iteratorIP9POLY_DECLEptB8ue170006Ev, symObjAddr: 0x72E0, symBinAddr: 0x10000EE2C, symSize: 0x24 }
  - { offsetInCU: 0x109C2, offset: 0x27500, size: 0x8, addend: 0x0, symName: __ZNSt3__128__exception_guard_exceptionsINS_29_AllocatorDestroyRangeReverseINS_9allocatorI9POLY_DECLEENS_16reverse_iteratorIPS3_EEEEED2B8ue170006Ev, symObjAddr: 0x7304, symBinAddr: 0x10000EE50, symSize: 0x48 }
  - { offsetInCU: 0x109EB, offset: 0x27529, size: 0x8, addend: 0x0, symName: __ZNKSt3__129_AllocatorDestroyRangeReverseINS_9allocatorI9POLY_DECLEENS_16reverse_iteratorIPS2_EEEclB8ue170006Ev, symObjAddr: 0x734C, symBinAddr: 0x10000EE98, symSize: 0xB4 }
  - { offsetInCU: 0x10A11, offset: 0x2754F, size: 0x8, addend: 0x0, symName: __ZNSt3__116reverse_iteratorINS0_IP9POLY_DECLEEEC1B8ue170006ES3_, symObjAddr: 0x7470, symBinAddr: 0x10000EFBC, symSize: 0x3C }
  - { offsetInCU: 0x10A48, offset: 0x27586, size: 0x8, addend: 0x0, symName: __ZNSt3__116allocator_traitsINS_9allocatorI9POLY_DECLEEE7destroyB8ue170006IS2_vEEvRS3_PT_, symObjAddr: 0x750C, symBinAddr: 0x10000F058, symSize: 0x2C }
  - { offsetInCU: 0x10A85, offset: 0x275C3, size: 0x8, addend: 0x0, symName: __ZNSt3__116reverse_iteratorINS0_IP9POLY_DECLEEEppB8ue170006Ev, symObjAddr: 0x755C, symBinAddr: 0x10000F0A8, symSize: 0x30 }
  - { offsetInCU: 0x10AAA, offset: 0x275E8, size: 0x8, addend: 0x0, symName: __ZNKSt3__116reverse_iteratorINS0_IP9POLY_DECLEEE4baseB8ue170006Ev, symObjAddr: 0x758C, symBinAddr: 0x10000F0D8, symSize: 0x24 }
  - { offsetInCU: 0x10ACF, offset: 0x2760D, size: 0x8, addend: 0x0, symName: __ZNSt3__19allocatorI9POLY_DECLE7destroyB8ue170006EPS1_, symObjAddr: 0x75B0, symBinAddr: 0x10000F0FC, symSize: 0x28 }
  - { offsetInCU: 0x10B02, offset: 0x27640, size: 0x8, addend: 0x0, symName: __ZN9POLY_DECLD1Ev, symObjAddr: 0x75D8, symBinAddr: 0x10000F124, symSize: 0x2C }
  - { offsetInCU: 0x10B2D, offset: 0x2766B, size: 0x8, addend: 0x0, symName: __ZN9POLY_DECLD2Ev, symObjAddr: 0x7604, symBinAddr: 0x10000F150, symSize: 0x2C }
  - { offsetInCU: 0x10B5D, offset: 0x2769B, size: 0x8, addend: 0x0, symName: __ZNSt3__119__to_address_helperINS_16reverse_iteratorINS1_IP9POLY_DECLEEEEvE6__callB8ue170006ERKS5_, symObjAddr: 0x7630, symBinAddr: 0x10000F17C, symSize: 0x4C }
  - { offsetInCU: 0x10B80, offset: 0x276BE, size: 0x8, addend: 0x0, symName: __ZNKSt3__116reverse_iteratorINS0_IP9POLY_DECLEEEptB8ue170006Ev, symObjAddr: 0x767C, symBinAddr: 0x10000F1C8, symSize: 0x24 }
  - { offsetInCU: 0x10BA5, offset: 0x276E3, size: 0x8, addend: 0x0, symName: __ZNKSt3__116reverse_iteratorINS0_IP9POLY_DECLEEEdeB8ue170006Ev, symObjAddr: 0x76A0, symBinAddr: 0x10000F1EC, symSize: 0x34 }
  - { offsetInCU: 0x10BD8, offset: 0x27716, size: 0x8, addend: 0x0, symName: __ZNSt3__116reverse_iteratorIP9POLY_DECLEmmB8ue170006Ev, symObjAddr: 0x76D4, symBinAddr: 0x10000F220, symSize: 0x20 }
  - { offsetInCU: 0x10BFD, offset: 0x2773B, size: 0x8, addend: 0x0, symName: __ZNSt3__116reverse_iteratorINS0_IP9POLY_DECLEEEC2B8ue170006ES3_, symObjAddr: 0x76F4, symBinAddr: 0x10000F240, symSize: 0x2C }
  - { offsetInCU: 0x10C34, offset: 0x27772, size: 0x8, addend: 0x0, symName: __ZNSt3__116reverse_iteratorIP9POLY_DECLEC2B8ue170006ES2_, symObjAddr: 0x7720, symBinAddr: 0x10000F26C, symSize: 0x28 }
  - { offsetInCU: 0x10C6B, offset: 0x277A9, size: 0x8, addend: 0x0, symName: __ZNSt3__114__split_bufferI9POLY_DECLRNS_9allocatorIS1_EEED2Ev, symObjAddr: 0x7748, symBinAddr: 0x10000F294, symSize: 0x80 }
  - { offsetInCU: 0x10C96, offset: 0x277D4, size: 0x8, addend: 0x0, symName: __ZNSt3__114__split_bufferI9POLY_DECLRNS_9allocatorIS1_EEE5clearB8ue170006Ev, symObjAddr: 0x77C8, symBinAddr: 0x10000F314, symSize: 0x28 }
  - { offsetInCU: 0x10CBB, offset: 0x277F9, size: 0x8, addend: 0x0, symName: __ZNSt3__116allocator_traitsINS_9allocatorI9POLY_DECLEEE10deallocateB8ue170006ERS3_PS2_m, symObjAddr: 0x77F0, symBinAddr: 0x10000F33C, symSize: 0x34 }
  - { offsetInCU: 0x10CFD, offset: 0x2783B, size: 0x8, addend: 0x0, symName: __ZNKSt3__114__split_bufferI9POLY_DECLRNS_9allocatorIS1_EEE8capacityB8ue170006Ev, symObjAddr: 0x7824, symBinAddr: 0x10000F370, symSize: 0x40 }
  - { offsetInCU: 0x10D22, offset: 0x27860, size: 0x8, addend: 0x0, symName: __ZNSt3__114__split_bufferI9POLY_DECLRNS_9allocatorIS1_EEE17__destruct_at_endB8ue170006EPS1_, symObjAddr: 0x7864, symBinAddr: 0x10000F3B0, symSize: 0x2C }
  - { offsetInCU: 0x10D55, offset: 0x27893, size: 0x8, addend: 0x0, symName: __ZNSt3__114__split_bufferI9POLY_DECLRNS_9allocatorIS1_EEE17__destruct_at_endB8ue170006EPS1_NS_17integral_constantIbLb0EEE, symObjAddr: 0x7890, symBinAddr: 0x10000F3DC, symSize: 0x94 }
  - { offsetInCU: 0x10D94, offset: 0x278D2, size: 0x8, addend: 0x0, symName: __ZNSt3__19allocatorI9POLY_DECLE10deallocateB8ue170006EPS1_m, symObjAddr: 0x7924, symBinAddr: 0x10000F470, symSize: 0x74 }
  - { offsetInCU: 0x10DD5, offset: 0x27913, size: 0x8, addend: 0x0, symName: __ZNKSt3__114__split_bufferI9POLY_DECLRNS_9allocatorIS1_EEE9__end_capB8ue170006Ev, symObjAddr: 0x7998, symBinAddr: 0x10000F4E4, symSize: 0x28 }
  - { offsetInCU: 0x10DFA, offset: 0x27938, size: 0x8, addend: 0x0, symName: __ZNKSt3__117__compressed_pairIP9POLY_DECLRNS_9allocatorIS1_EEE5firstB8ue170006Ev, symObjAddr: 0x79C0, symBinAddr: 0x10000F50C, symSize: 0x24 }
  - { offsetInCU: 0x10E1F, offset: 0x2795D, size: 0x8, addend: 0x0, symName: __ZNSt3__14pairINS_12basic_stringIcNS_11char_traitsIcEENS_9allocatorIcEEEEiEC1B8ue170006ERKS6_RKi, symObjAddr: 0x79E4, symBinAddr: 0x10000F530, symSize: 0x3C }
  - { offsetInCU: 0x10E64, offset: 0x279A2, size: 0x8, addend: 0x0, symName: __ZNSt3__14pairINS_12basic_stringIcNS_11char_traitsIcEENS_9allocatorIcEEEEiEC2B8ue170006ERKS6_RKi, symObjAddr: 0x7A20, symBinAddr: 0x10000F56C, symSize: 0x44 }
  - { offsetInCU: 0x10EA9, offset: 0x279E7, size: 0x8, addend: 0x0, symName: __ZNSt3__16vectorINS_4pairINS_12basic_stringIcNS_11char_traitsIcEENS_9allocatorIcEEEEiEENS5_IS8_EEE9__end_capB8ue170006Ev, symObjAddr: 0x7A64, symBinAddr: 0x10000F5B0, symSize: 0x28 }
  - { offsetInCU: 0x10ECE, offset: 0x27A0C, size: 0x8, addend: 0x0, symName: __ZNSt3__16vectorINS_4pairINS_12basic_stringIcNS_11char_traitsIcEENS_9allocatorIcEEEEiEENS5_IS8_EEE22__construct_one_at_endB8ue170006IJS8_EEEvDpOT_, symObjAddr: 0x7A8C, symBinAddr: 0x10000F5D8, symSize: 0x98 }
  - { offsetInCU: 0x10F1D, offset: 0x27A5B, size: 0x8, addend: 0x0, symName: __ZNSt3__16vectorINS_4pairINS_12basic_stringIcNS_11char_traitsIcEENS_9allocatorIcEEEEiEENS5_IS8_EEE21__push_back_slow_pathIS8_EEvOT_, symObjAddr: 0x7B24, symBinAddr: 0x10000F670, symSize: 0xE0 }
  - { offsetInCU: 0x10F7B, offset: 0x27AB9, size: 0x8, addend: 0x0, symName: __ZNSt3__117__compressed_pairIPNS_4pairINS_12basic_stringIcNS_11char_traitsIcEENS_9allocatorIcEEEEiEENS5_IS8_EEE5firstB8ue170006Ev, symObjAddr: 0x7C04, symBinAddr: 0x10000F750, symSize: 0x24 }
  - { offsetInCU: 0x10FA0, offset: 0x27ADE, size: 0x8, addend: 0x0, symName: __ZNSt3__122__compressed_pair_elemIPNS_4pairINS_12basic_stringIcNS_11char_traitsIcEENS_9allocatorIcEEEEiEELi0ELb0EE5__getB8ue170006Ev, symObjAddr: 0x7C28, symBinAddr: 0x10000F774, symSize: 0x14 }
  - { offsetInCU: 0x10FDE, offset: 0x27B1C, size: 0x8, addend: 0x0, symName: __ZNSt3__16vectorINS_4pairINS_12basic_stringIcNS_11char_traitsIcEENS_9allocatorIcEEEEiEENS5_IS8_EEE21_ConstructTransactionC1B8ue170006ERSA_m, symObjAddr: 0x7C3C, symBinAddr: 0x10000F788, symSize: 0x3C }
  - { offsetInCU: 0x11025, offset: 0x27B63, size: 0x8, addend: 0x0, symName: __ZNSt3__116allocator_traitsINS_9allocatorINS_4pairINS_12basic_stringIcNS_11char_traitsIcEENS1_IcEEEEiEEEEE9constructB8ue170006IS8_JS8_EvEEvRS9_PT_DpOT0_, symObjAddr: 0x7C78, symBinAddr: 0x10000F7C4, symSize: 0x34 }
  - { offsetInCU: 0x1107C, offset: 0x27BBA, size: 0x8, addend: 0x0, symName: __ZNSt3__16vectorINS_4pairINS_12basic_stringIcNS_11char_traitsIcEENS_9allocatorIcEEEEiEENS5_IS8_EEE7__allocB8ue170006Ev, symObjAddr: 0x7CAC, symBinAddr: 0x10000F7F8, symSize: 0x28 }
  - { offsetInCU: 0x110A1, offset: 0x27BDF, size: 0x8, addend: 0x0, symName: __ZNSt3__16vectorINS_4pairINS_12basic_stringIcNS_11char_traitsIcEENS_9allocatorIcEEEEiEENS5_IS8_EEE21_ConstructTransactionD1B8ue170006Ev, symObjAddr: 0x7CE8, symBinAddr: 0x10000F834, symSize: 0x2C }
  - { offsetInCU: 0x110CA, offset: 0x27C08, size: 0x8, addend: 0x0, symName: __ZNSt3__16vectorINS_4pairINS_12basic_stringIcNS_11char_traitsIcEENS_9allocatorIcEEEEiEENS5_IS8_EEE21_ConstructTransactionC2B8ue170006ERSA_m, symObjAddr: 0x7D14, symBinAddr: 0x10000F860, symSize: 0x44 }
  - { offsetInCU: 0x11111, offset: 0x27C4F, size: 0x8, addend: 0x0, symName: __ZNSt3__19allocatorINS_4pairINS_12basic_stringIcNS_11char_traitsIcEENS0_IcEEEEiEEE9constructB8ue170006IS7_JS7_EEEvPT_DpOT0_, symObjAddr: 0x7D58, symBinAddr: 0x10000F8A4, symSize: 0x30 }
  - { offsetInCU: 0x11166, offset: 0x27CA4, size: 0x8, addend: 0x0, symName: __ZNSt3__14pairINS_12basic_stringIcNS_11char_traitsIcEENS_9allocatorIcEEEEiEC1B8ue170006EOS7_, symObjAddr: 0x7D88, symBinAddr: 0x10000F8D4, symSize: 0x34 }
  - { offsetInCU: 0x1119A, offset: 0x27CD8, size: 0x8, addend: 0x0, symName: __ZNSt3__14pairINS_12basic_stringIcNS_11char_traitsIcEENS_9allocatorIcEEEEiEC2B8ue170006EOS7_, symObjAddr: 0x7DBC, symBinAddr: 0x10000F908, symSize: 0x40 }
  - { offsetInCU: 0x111CE, offset: 0x27D0C, size: 0x8, addend: 0x0, symName: __ZNSt3__117__compressed_pairIPNS_4pairINS_12basic_stringIcNS_11char_traitsIcEENS_9allocatorIcEEEEiEENS5_IS8_EEE6secondB8ue170006Ev, symObjAddr: 0x7DFC, symBinAddr: 0x10000F948, symSize: 0x24 }
  - { offsetInCU: 0x111F3, offset: 0x27D31, size: 0x8, addend: 0x0, symName: __ZNSt3__122__compressed_pair_elemINS_9allocatorINS_4pairINS_12basic_stringIcNS_11char_traitsIcEENS1_IcEEEEiEEEELi1ELb1EE5__getB8ue170006Ev, symObjAddr: 0x7E20, symBinAddr: 0x10000F96C, symSize: 0x14 }
  - { offsetInCU: 0x11218, offset: 0x27D56, size: 0x8, addend: 0x0, symName: __ZNSt3__16vectorINS_4pairINS_12basic_stringIcNS_11char_traitsIcEENS_9allocatorIcEEEEiEENS5_IS8_EEE21_ConstructTransactionD2B8ue170006Ev, symObjAddr: 0x7E34, symBinAddr: 0x10000F980, symSize: 0x20 }
  - { offsetInCU: 0x11241, offset: 0x27D7F, size: 0x8, addend: 0x0, symName: __ZNKSt3__16vectorINS_4pairINS_12basic_stringIcNS_11char_traitsIcEENS_9allocatorIcEEEEiEENS5_IS8_EEE11__recommendB8ue170006Em, symObjAddr: 0x7E54, symBinAddr: 0x10000F9A0, symSize: 0xB4 }
  - { offsetInCU: 0x11296, offset: 0x27DD4, size: 0x8, addend: 0x0, symName: __ZNKSt3__16vectorINS_4pairINS_12basic_stringIcNS_11char_traitsIcEENS_9allocatorIcEEEEiEENS5_IS8_EEE4sizeB8ue170006Ev, symObjAddr: 0x7F08, symBinAddr: 0x10000FA54, symSize: 0x28 }
  - { offsetInCU: 0x112BB, offset: 0x27DF9, size: 0x8, addend: 0x0, symName: __ZNSt3__114__split_bufferINS_4pairINS_12basic_stringIcNS_11char_traitsIcEENS_9allocatorIcEEEEiEERNS5_IS8_EEEC1EmmSA_, symObjAddr: 0x7F30, symBinAddr: 0x10000FA7C, symSize: 0x44 }
  - { offsetInCU: 0x11310, offset: 0x27E4E, size: 0x8, addend: 0x0, symName: __ZNSt3__114__split_bufferINS_4pairINS_12basic_stringIcNS_11char_traitsIcEENS_9allocatorIcEEEEiEERNS5_IS8_EEED1Ev, symObjAddr: 0x8084, symBinAddr: 0x10000FBD0, symSize: 0x2C }
  - { offsetInCU: 0x1133B, offset: 0x27E79, size: 0x8, addend: 0x0, symName: __ZNKSt3__16vectorINS_4pairINS_12basic_stringIcNS_11char_traitsIcEENS_9allocatorIcEEEEiEENS5_IS8_EEE8max_sizeEv, symObjAddr: 0x80B0, symBinAddr: 0x10000FBFC, symSize: 0x74 }
  - { offsetInCU: 0x11361, offset: 0x27E9F, size: 0x8, addend: 0x0, symName: __ZNKSt3__16vectorINS_4pairINS_12basic_stringIcNS_11char_traitsIcEENS_9allocatorIcEEEEiEENS5_IS8_EEE20__throw_length_errorB8ue170006Ev, symObjAddr: 0x8124, symBinAddr: 0x10000FC70, symSize: 0x1C }
  - { offsetInCU: 0x11386, offset: 0x27EC4, size: 0x8, addend: 0x0, symName: __ZNKSt3__16vectorINS_4pairINS_12basic_stringIcNS_11char_traitsIcEENS_9allocatorIcEEEEiEENS5_IS8_EEE8capacityB8ue170006Ev, symObjAddr: 0x8140, symBinAddr: 0x10000FC8C, symSize: 0x40 }
  - { offsetInCU: 0x113B5, offset: 0x27EF3, size: 0x8, addend: 0x0, symName: __ZNSt3__116allocator_traitsINS_9allocatorINS_4pairINS_12basic_stringIcNS_11char_traitsIcEENS1_IcEEEEiEEEEE8max_sizeB8ue170006IS9_vEEmRKS9_, symObjAddr: 0x8180, symBinAddr: 0x10000FCCC, symSize: 0x24 }
  - { offsetInCU: 0x113E3, offset: 0x27F21, size: 0x8, addend: 0x0, symName: __ZNKSt3__16vectorINS_4pairINS_12basic_stringIcNS_11char_traitsIcEENS_9allocatorIcEEEEiEENS5_IS8_EEE7__allocB8ue170006Ev, symObjAddr: 0x81A4, symBinAddr: 0x10000FCF0, symSize: 0x28 }
  - { offsetInCU: 0x11408, offset: 0x27F46, size: 0x8, addend: 0x0, symName: __ZNKSt3__19allocatorINS_4pairINS_12basic_stringIcNS_11char_traitsIcEENS0_IcEEEEiEEE8max_sizeB8ue170006Ev, symObjAddr: 0x81CC, symBinAddr: 0x10000FD18, symSize: 0x14 }
  - { offsetInCU: 0x1142D, offset: 0x27F6B, size: 0x8, addend: 0x0, symName: __ZNKSt3__117__compressed_pairIPNS_4pairINS_12basic_stringIcNS_11char_traitsIcEENS_9allocatorIcEEEEiEENS5_IS8_EEE6secondB8ue170006Ev, symObjAddr: 0x81E0, symBinAddr: 0x10000FD2C, symSize: 0x24 }
  - { offsetInCU: 0x11452, offset: 0x27F90, size: 0x8, addend: 0x0, symName: __ZNKSt3__122__compressed_pair_elemINS_9allocatorINS_4pairINS_12basic_stringIcNS_11char_traitsIcEENS1_IcEEEEiEEEELi1ELb1EE5__getB8ue170006Ev, symObjAddr: 0x8204, symBinAddr: 0x10000FD50, symSize: 0x14 }
  - { offsetInCU: 0x11477, offset: 0x27FB5, size: 0x8, addend: 0x0, symName: __ZNKSt3__16vectorINS_4pairINS_12basic_stringIcNS_11char_traitsIcEENS_9allocatorIcEEEEiEENS5_IS8_EEE9__end_capB8ue170006Ev, symObjAddr: 0x8218, symBinAddr: 0x10000FD64, symSize: 0x28 }
  - { offsetInCU: 0x1149C, offset: 0x27FDA, size: 0x8, addend: 0x0, symName: __ZNKSt3__117__compressed_pairIPNS_4pairINS_12basic_stringIcNS_11char_traitsIcEENS_9allocatorIcEEEEiEENS5_IS8_EEE5firstB8ue170006Ev, symObjAddr: 0x8240, symBinAddr: 0x10000FD8C, symSize: 0x24 }
  - { offsetInCU: 0x114C1, offset: 0x27FFF, size: 0x8, addend: 0x0, symName: __ZNKSt3__122__compressed_pair_elemIPNS_4pairINS_12basic_stringIcNS_11char_traitsIcEENS_9allocatorIcEEEEiEELi0ELb0EE5__getB8ue170006Ev, symObjAddr: 0x8264, symBinAddr: 0x10000FDB0, symSize: 0x14 }
  - { offsetInCU: 0x114E6, offset: 0x28024, size: 0x8, addend: 0x0, symName: __ZNSt3__114__split_bufferINS_4pairINS_12basic_stringIcNS_11char_traitsIcEENS_9allocatorIcEEEEiEERNS5_IS8_EEEC2EmmSA_, symObjAddr: 0x8278, symBinAddr: 0x10000FDC4, symSize: 0xD4 }
  - { offsetInCU: 0x1155A, offset: 0x28098, size: 0x8, addend: 0x0, symName: __ZNSt3__117__compressed_pairIPNS_4pairINS_12basic_stringIcNS_11char_traitsIcEENS_9allocatorIcEEEEiEERNS5_IS8_EEEC1B8ue170006IDnSB_EEOT_OT0_, symObjAddr: 0x834C, symBinAddr: 0x10000FE98, symSize: 0x3C }
  - { offsetInCU: 0x115B1, offset: 0x280EF, size: 0x8, addend: 0x0, symName: __ZNSt3__114__split_bufferINS_4pairINS_12basic_stringIcNS_11char_traitsIcEENS_9allocatorIcEEEEiEERNS5_IS8_EEE7__allocB8ue170006Ev, symObjAddr: 0x83C8, symBinAddr: 0x10000FF14, symSize: 0x28 }
  - { offsetInCU: 0x115D6, offset: 0x28114, size: 0x8, addend: 0x0, symName: __ZNSt3__114__split_bufferINS_4pairINS_12basic_stringIcNS_11char_traitsIcEENS_9allocatorIcEEEEiEERNS5_IS8_EEE9__end_capB8ue170006Ev, symObjAddr: 0x83F0, symBinAddr: 0x10000FF3C, symSize: 0x28 }
  - { offsetInCU: 0x115FB, offset: 0x28139, size: 0x8, addend: 0x0, symName: __ZNSt3__117__compressed_pairIPNS_4pairINS_12basic_stringIcNS_11char_traitsIcEENS_9allocatorIcEEEEiEERNS5_IS8_EEEC2B8ue170006IDnSB_EEOT_OT0_, symObjAddr: 0x8418, symBinAddr: 0x10000FF64, symSize: 0x48 }
  - { offsetInCU: 0x11652, offset: 0x28190, size: 0x8, addend: 0x0, symName: __ZNSt3__122__compressed_pair_elemIPNS_4pairINS_12basic_stringIcNS_11char_traitsIcEENS_9allocatorIcEEEEiEELi0ELb0EEC2B8ue170006IDnvEEOT_, symObjAddr: 0x8460, symBinAddr: 0x10000FFAC, symSize: 0x1C }
  - { offsetInCU: 0x11693, offset: 0x281D1, size: 0x8, addend: 0x0, symName: __ZNSt3__122__compressed_pair_elemIRNS_9allocatorINS_4pairINS_12basic_stringIcNS_11char_traitsIcEENS1_IcEEEEiEEEELi1ELb0EEC2B8ue170006ISA_vEEOT_, symObjAddr: 0x847C, symBinAddr: 0x10000FFC8, symSize: 0x20 }
  - { offsetInCU: 0x116D4, offset: 0x28212, size: 0x8, addend: 0x0, symName: __ZNSt3__19allocatorINS_4pairINS_12basic_stringIcNS_11char_traitsIcEENS0_IcEEEEiEEE8allocateB8ue170006Em, symObjAddr: 0x849C, symBinAddr: 0x10000FFE8, symSize: 0x84 }
  - { offsetInCU: 0x11707, offset: 0x28245, size: 0x8, addend: 0x0, symName: __ZNSt3__117__compressed_pairIPNS_4pairINS_12basic_stringIcNS_11char_traitsIcEENS_9allocatorIcEEEEiEERNS5_IS8_EEE6secondB8ue170006Ev, symObjAddr: 0x8520, symBinAddr: 0x10001006C, symSize: 0x28 }
  - { offsetInCU: 0x1172C, offset: 0x2826A, size: 0x8, addend: 0x0, symName: __ZNSt3__122__compressed_pair_elemIRNS_9allocatorINS_4pairINS_12basic_stringIcNS_11char_traitsIcEENS1_IcEEEEiEEEELi1ELb0EE5__getB8ue170006Ev, symObjAddr: 0x8548, symBinAddr: 0x100010094, symSize: 0x18 }
  - { offsetInCU: 0x11751, offset: 0x2828F, size: 0x8, addend: 0x0, symName: __ZNSt3__117__compressed_pairIPNS_4pairINS_12basic_stringIcNS_11char_traitsIcEENS_9allocatorIcEEEEiEERNS5_IS8_EEE5firstB8ue170006Ev, symObjAddr: 0x8560, symBinAddr: 0x1000100AC, symSize: 0x24 }
  - { offsetInCU: 0x11776, offset: 0x282B4, size: 0x8, addend: 0x0, symName: __ZNKSt3__16vectorINS_4pairINS_12basic_stringIcNS_11char_traitsIcEENS_9allocatorIcEEEEiEENS5_IS8_EEE17__annotate_deleteB8ue170006Ev, symObjAddr: 0x8584, symBinAddr: 0x1000100D0, symSize: 0xB8 }
  - { offsetInCU: 0x1179B, offset: 0x282D9, size: 0x8, addend: 0x0, symName: __ZNSt3__116reverse_iteratorIPNS_4pairINS_12basic_stringIcNS_11char_traitsIcEENS_9allocatorIcEEEEiEEEC1B8ue170006ES9_, symObjAddr: 0x8770, symBinAddr: 0x1000102BC, symSize: 0x34 }
  - { offsetInCU: 0x117D2, offset: 0x28310, size: 0x8, addend: 0x0, symName: __ZNKSt3__116reverse_iteratorIPNS_4pairINS_12basic_stringIcNS_11char_traitsIcEENS_9allocatorIcEEEEiEEE4baseB8ue170006Ev, symObjAddr: 0x87A4, symBinAddr: 0x1000102F0, symSize: 0x18 }
  - { offsetInCU: 0x117F7, offset: 0x28335, size: 0x8, addend: 0x0, symName: __ZNKSt3__16vectorINS_4pairINS_12basic_stringIcNS_11char_traitsIcEENS_9allocatorIcEEEEiEENS5_IS8_EEE14__annotate_newB8ue170006Em, symObjAddr: 0x87F8, symBinAddr: 0x100010344, symSize: 0xAC }
  - { offsetInCU: 0x1182B, offset: 0x28369, size: 0x8, addend: 0x0, symName: __ZNKSt3__16vectorINS_4pairINS_12basic_stringIcNS_11char_traitsIcEENS_9allocatorIcEEEEiEENS5_IS8_EEE31__annotate_contiguous_containerB8ue170006EPKvSC_SC_SC_, symObjAddr: 0x88A4, symBinAddr: 0x1000103F0, symSize: 0x20 }
  - { offsetInCU: 0x1187C, offset: 0x283BA, size: 0x8, addend: 0x0, symName: __ZNKSt3__16vectorINS_4pairINS_12basic_stringIcNS_11char_traitsIcEENS_9allocatorIcEEEEiEENS5_IS8_EEE4dataB8ue170006Ev, symObjAddr: 0x88C4, symBinAddr: 0x100010410, symSize: 0x28 }
  - { offsetInCU: 0x118A1, offset: 0x283DF, size: 0x8, addend: 0x0, symName: __ZNSt3__129_AllocatorDestroyRangeReverseINS_9allocatorINS_4pairINS_12basic_stringIcNS_11char_traitsIcEENS1_IcEEEEiEEEENS_16reverse_iteratorIPS8_EEEC1B8ue170006ERS9_RSC_SF_, symObjAddr: 0x8938, symBinAddr: 0x100010484, symSize: 0x44 }
  - { offsetInCU: 0x118F7, offset: 0x28435, size: 0x8, addend: 0x0, symName: __ZNSt3__116allocator_traitsINS_9allocatorINS_4pairINS_12basic_stringIcNS_11char_traitsIcEENS1_IcEEEEiEEEEE9constructB8ue170006IS8_JRKS8_EvEEvRS9_PT_DpOT0_, symObjAddr: 0x89C4, symBinAddr: 0x100010510, symSize: 0x34 }
  - { offsetInCU: 0x1194E, offset: 0x2848C, size: 0x8, addend: 0x0, symName: __ZNKSt3__116reverse_iteratorIPNS_4pairINS_12basic_stringIcNS_11char_traitsIcEENS_9allocatorIcEEEEiEEEdeB8ue170006Ev, symObjAddr: 0x8A1C, symBinAddr: 0x100010568, symSize: 0x28 }
  - { offsetInCU: 0x11981, offset: 0x284BF, size: 0x8, addend: 0x0, symName: __ZNSt3__116reverse_iteratorIPNS_4pairINS_12basic_stringIcNS_11char_traitsIcEENS_9allocatorIcEEEEiEEEppB8ue170006Ev, symObjAddr: 0x8A44, symBinAddr: 0x100010590, symSize: 0x20 }
  - { offsetInCU: 0x119A6, offset: 0x284E4, size: 0x8, addend: 0x0, symName: __ZNSt3__128__exception_guard_exceptionsINS_29_AllocatorDestroyRangeReverseINS_9allocatorINS_4pairINS_12basic_stringIcNS_11char_traitsIcEENS2_IcEEEEiEEEENS_16reverse_iteratorIPS9_EEEEE10__completeB8ue170006Ev, symObjAddr: 0x8A64, symBinAddr: 0x1000105B0, symSize: 0x1C }
  - { offsetInCU: 0x119CB, offset: 0x28509, size: 0x8, addend: 0x0, symName: __ZNSt3__128__exception_guard_exceptionsINS_29_AllocatorDestroyRangeReverseINS_9allocatorINS_4pairINS_12basic_stringIcNS_11char_traitsIcEENS2_IcEEEEiEEEENS_16reverse_iteratorIPS9_EEEEED1B8ue170006Ev, symObjAddr: 0x8A80, symBinAddr: 0x1000105CC, symSize: 0x2C }
  - { offsetInCU: 0x119F4, offset: 0x28532, size: 0x8, addend: 0x0, symName: __ZNSt3__128__exception_guard_exceptionsINS_29_AllocatorDestroyRangeReverseINS_9allocatorINS_4pairINS_12basic_stringIcNS_11char_traitsIcEENS2_IcEEEEiEEEENS_16reverse_iteratorIPS9_EEEEEC1B8ue170006ESE_, symObjAddr: 0x8AAC, symBinAddr: 0x1000105F8, symSize: 0x34 }
  - { offsetInCU: 0x11A2C, offset: 0x2856A, size: 0x8, addend: 0x0, symName: __ZNSt3__128__exception_guard_exceptionsINS_29_AllocatorDestroyRangeReverseINS_9allocatorINS_4pairINS_12basic_stringIcNS_11char_traitsIcEENS2_IcEEEEiEEEENS_16reverse_iteratorIPS9_EEEEEC2B8ue170006ESE_, symObjAddr: 0x8AE0, symBinAddr: 0x10001062C, symSize: 0x30 }
  - { offsetInCU: 0x11A64, offset: 0x285A2, size: 0x8, addend: 0x0, symName: __ZNSt3__129_AllocatorDestroyRangeReverseINS_9allocatorINS_4pairINS_12basic_stringIcNS_11char_traitsIcEENS1_IcEEEEiEEEENS_16reverse_iteratorIPS8_EEEC2B8ue170006ERS9_RSC_SF_, symObjAddr: 0x8B10, symBinAddr: 0x10001065C, symSize: 0x38 }
  - { offsetInCU: 0x11ABA, offset: 0x285F8, size: 0x8, addend: 0x0, symName: __ZNSt3__19allocatorINS_4pairINS_12basic_stringIcNS_11char_traitsIcEENS0_IcEEEEiEEE9constructB8ue170006IS7_JRKS7_EEEvPT_DpOT0_, symObjAddr: 0x8B48, symBinAddr: 0x100010694, symSize: 0x30 }
  - { offsetInCU: 0x11B0F, offset: 0x2864D, size: 0x8, addend: 0x0, symName: __ZNSt3__14pairINS_12basic_stringIcNS_11char_traitsIcEENS_9allocatorIcEEEEiEC1B8ue170006ERKS7_, symObjAddr: 0x8B78, symBinAddr: 0x1000106C4, symSize: 0x34 }
  - { offsetInCU: 0x11B43, offset: 0x28681, size: 0x8, addend: 0x0, symName: __ZNSt3__14pairINS_12basic_stringIcNS_11char_traitsIcEENS_9allocatorIcEEEEiEC2B8ue170006ERKS7_, symObjAddr: 0x8BAC, symBinAddr: 0x1000106F8, symSize: 0x40 }
  - { offsetInCU: 0x11B7C, offset: 0x286BA, size: 0x8, addend: 0x0, symName: __ZNSt3__119__to_address_helperINS_16reverse_iteratorIPNS_4pairINS_12basic_stringIcNS_11char_traitsIcEENS_9allocatorIcEEEEiEEEEvE6__callB8ue170006ERKSB_, symObjAddr: 0x8BEC, symBinAddr: 0x100010738, symSize: 0x4C }
  - { offsetInCU: 0x11B9F, offset: 0x286DD, size: 0x8, addend: 0x0, symName: __ZNKSt3__116reverse_iteratorIPNS_4pairINS_12basic_stringIcNS_11char_traitsIcEENS_9allocatorIcEEEEiEEEptB8ue170006Ev, symObjAddr: 0x8C38, symBinAddr: 0x100010784, symSize: 0x24 }
  - { offsetInCU: 0x11BC4, offset: 0x28702, size: 0x8, addend: 0x0, symName: __ZNSt3__128__exception_guard_exceptionsINS_29_AllocatorDestroyRangeReverseINS_9allocatorINS_4pairINS_12basic_stringIcNS_11char_traitsIcEENS2_IcEEEEiEEEENS_16reverse_iteratorIPS9_EEEEED2B8ue170006Ev, symObjAddr: 0x8C5C, symBinAddr: 0x1000107A8, symSize: 0x48 }
  - { offsetInCU: 0x11BED, offset: 0x2872B, size: 0x8, addend: 0x0, symName: __ZNKSt3__129_AllocatorDestroyRangeReverseINS_9allocatorINS_4pairINS_12basic_stringIcNS_11char_traitsIcEENS1_IcEEEEiEEEENS_16reverse_iteratorIPS8_EEEclB8ue170006Ev, symObjAddr: 0x8CA4, symBinAddr: 0x1000107F0, symSize: 0xB4 }
  - { offsetInCU: 0x11C13, offset: 0x28751, size: 0x8, addend: 0x0, symName: __ZNSt3__116reverse_iteratorINS0_IPNS_4pairINS_12basic_stringIcNS_11char_traitsIcEENS_9allocatorIcEEEEiEEEEEC1B8ue170006ESA_, symObjAddr: 0x8DC8, symBinAddr: 0x100010914, symSize: 0x3C }
  - { offsetInCU: 0x11C4A, offset: 0x28788, size: 0x8, addend: 0x0, symName: __ZNSt3__116allocator_traitsINS_9allocatorINS_4pairINS_12basic_stringIcNS_11char_traitsIcEENS1_IcEEEEiEEEEE7destroyB8ue170006IS8_vEEvRS9_PT_, symObjAddr: 0x8E64, symBinAddr: 0x1000109B0, symSize: 0x2C }
  - { offsetInCU: 0x11C87, offset: 0x287C5, size: 0x8, addend: 0x0, symName: __ZNSt3__116reverse_iteratorINS0_IPNS_4pairINS_12basic_stringIcNS_11char_traitsIcEENS_9allocatorIcEEEEiEEEEEppB8ue170006Ev, symObjAddr: 0x8EB4, symBinAddr: 0x100010A00, symSize: 0x30 }
  - { offsetInCU: 0x11CAC, offset: 0x287EA, size: 0x8, addend: 0x0, symName: __ZNKSt3__116reverse_iteratorINS0_IPNS_4pairINS_12basic_stringIcNS_11char_traitsIcEENS_9allocatorIcEEEEiEEEEE4baseB8ue170006Ev, symObjAddr: 0x8EE4, symBinAddr: 0x100010A30, symSize: 0x24 }
  - { offsetInCU: 0x11CD1, offset: 0x2880F, size: 0x8, addend: 0x0, symName: __ZNSt3__19allocatorINS_4pairINS_12basic_stringIcNS_11char_traitsIcEENS0_IcEEEEiEEE7destroyB8ue170006EPS7_, symObjAddr: 0x8F08, symBinAddr: 0x100010A54, symSize: 0x28 }
  - { offsetInCU: 0x11D09, offset: 0x28847, size: 0x8, addend: 0x0, symName: __ZNSt3__119__to_address_helperINS_16reverse_iteratorINS1_IPNS_4pairINS_12basic_stringIcNS_11char_traitsIcEENS_9allocatorIcEEEEiEEEEEEvE6__callB8ue170006ERKSC_, symObjAddr: 0x8F30, symBinAddr: 0x100010A7C, symSize: 0x4C }
  - { offsetInCU: 0x11D2C, offset: 0x2886A, size: 0x8, addend: 0x0, symName: __ZNKSt3__116reverse_iteratorINS0_IPNS_4pairINS_12basic_stringIcNS_11char_traitsIcEENS_9allocatorIcEEEEiEEEEEptB8ue170006Ev, symObjAddr: 0x8F7C, symBinAddr: 0x100010AC8, symSize: 0x24 }
  - { offsetInCU: 0x11D51, offset: 0x2888F, size: 0x8, addend: 0x0, symName: __ZNKSt3__116reverse_iteratorINS0_IPNS_4pairINS_12basic_stringIcNS_11char_traitsIcEENS_9allocatorIcEEEEiEEEEEdeB8ue170006Ev, symObjAddr: 0x8FA0, symBinAddr: 0x100010AEC, symSize: 0x34 }
  - { offsetInCU: 0x11D84, offset: 0x288C2, size: 0x8, addend: 0x0, symName: __ZNSt3__116reverse_iteratorIPNS_4pairINS_12basic_stringIcNS_11char_traitsIcEENS_9allocatorIcEEEEiEEEmmB8ue170006Ev, symObjAddr: 0x8FD4, symBinAddr: 0x100010B20, symSize: 0x20 }
  - { offsetInCU: 0x11DA9, offset: 0x288E7, size: 0x8, addend: 0x0, symName: __ZNSt3__116reverse_iteratorINS0_IPNS_4pairINS_12basic_stringIcNS_11char_traitsIcEENS_9allocatorIcEEEEiEEEEEC2B8ue170006ESA_, symObjAddr: 0x8FF4, symBinAddr: 0x100010B40, symSize: 0x2C }
  - { offsetInCU: 0x11DE0, offset: 0x2891E, size: 0x8, addend: 0x0, symName: __ZNSt3__116reverse_iteratorIPNS_4pairINS_12basic_stringIcNS_11char_traitsIcEENS_9allocatorIcEEEEiEEEC2B8ue170006ES9_, symObjAddr: 0x9020, symBinAddr: 0x100010B6C, symSize: 0x28 }
  - { offsetInCU: 0x11E17, offset: 0x28955, size: 0x8, addend: 0x0, symName: __ZNSt3__114__split_bufferINS_4pairINS_12basic_stringIcNS_11char_traitsIcEENS_9allocatorIcEEEEiEERNS5_IS8_EEED2Ev, symObjAddr: 0x9048, symBinAddr: 0x100010B94, symSize: 0x80 }
  - { offsetInCU: 0x11E42, offset: 0x28980, size: 0x8, addend: 0x0, symName: __ZNSt3__114__split_bufferINS_4pairINS_12basic_stringIcNS_11char_traitsIcEENS_9allocatorIcEEEEiEERNS5_IS8_EEE5clearB8ue170006Ev, symObjAddr: 0x90C8, symBinAddr: 0x100010C14, symSize: 0x28 }
  - { offsetInCU: 0x11E67, offset: 0x289A5, size: 0x8, addend: 0x0, symName: __ZNSt3__116allocator_traitsINS_9allocatorINS_4pairINS_12basic_stringIcNS_11char_traitsIcEENS1_IcEEEEiEEEEE10deallocateB8ue170006ERS9_PS8_m, symObjAddr: 0x90F0, symBinAddr: 0x100010C3C, symSize: 0x34 }
  - { offsetInCU: 0x11EA9, offset: 0x289E7, size: 0x8, addend: 0x0, symName: __ZNKSt3__114__split_bufferINS_4pairINS_12basic_stringIcNS_11char_traitsIcEENS_9allocatorIcEEEEiEERNS5_IS8_EEE8capacityB8ue170006Ev, symObjAddr: 0x9124, symBinAddr: 0x100010C70, symSize: 0x40 }
  - { offsetInCU: 0x11ECE, offset: 0x28A0C, size: 0x8, addend: 0x0, symName: __ZNSt3__114__split_bufferINS_4pairINS_12basic_stringIcNS_11char_traitsIcEENS_9allocatorIcEEEEiEERNS5_IS8_EEE17__destruct_at_endB8ue170006EPS8_, symObjAddr: 0x9164, symBinAddr: 0x100010CB0, symSize: 0x2C }
  - { offsetInCU: 0x11F01, offset: 0x28A3F, size: 0x8, addend: 0x0, symName: __ZNSt3__114__split_bufferINS_4pairINS_12basic_stringIcNS_11char_traitsIcEENS_9allocatorIcEEEEiEERNS5_IS8_EEE17__destruct_at_endB8ue170006EPS8_NS_17integral_constantIbLb0EEE, symObjAddr: 0x9190, symBinAddr: 0x100010CDC, symSize: 0x94 }
  - { offsetInCU: 0x11F40, offset: 0x28A7E, size: 0x8, addend: 0x0, symName: __ZNSt3__19allocatorINS_4pairINS_12basic_stringIcNS_11char_traitsIcEENS0_IcEEEEiEEE10deallocateB8ue170006EPS7_m, symObjAddr: 0x9224, symBinAddr: 0x100010D70, symSize: 0x70 }
  - { offsetInCU: 0x11F81, offset: 0x28ABF, size: 0x8, addend: 0x0, symName: __ZNKSt3__114__split_bufferINS_4pairINS_12basic_stringIcNS_11char_traitsIcEENS_9allocatorIcEEEEiEERNS5_IS8_EEE9__end_capB8ue170006Ev, symObjAddr: 0x9294, symBinAddr: 0x100010DE0, symSize: 0x28 }
  - { offsetInCU: 0x11FA6, offset: 0x28AE4, size: 0x8, addend: 0x0, symName: __ZNKSt3__117__compressed_pairIPNS_4pairINS_12basic_stringIcNS_11char_traitsIcEENS_9allocatorIcEEEEiEERNS5_IS8_EEE5firstB8ue170006Ev, symObjAddr: 0x92BC, symBinAddr: 0x100010E08, symSize: 0x24 }
  - { offsetInCU: 0x11FCB, offset: 0x28B09, size: 0x8, addend: 0x0, symName: __ZNSt3__16vectorIiNS_9allocatorIiEEEC2B8ue170006Ev, symObjAddr: 0x92E0, symBinAddr: 0x100010E2C, symSize: 0x44 }
  - { offsetInCU: 0x11FF4, offset: 0x28B32, size: 0x8, addend: 0x0, symName: __ZNSt3__117__compressed_pairIPiNS_9allocatorIiEEEC1B8ue170006IDnNS_18__default_init_tagEEEOT_OT0_, symObjAddr: 0x9324, symBinAddr: 0x100010E70, symSize: 0x3C }
  - { offsetInCU: 0x1204B, offset: 0x28B89, size: 0x8, addend: 0x0, symName: __ZNSt3__117__compressed_pairIPiNS_9allocatorIiEEEC2B8ue170006IDnNS_18__default_init_tagEEEOT_OT0_, symObjAddr: 0x9360, symBinAddr: 0x100010EAC, symSize: 0x40 }
  - { offsetInCU: 0x120A2, offset: 0x28BE0, size: 0x8, addend: 0x0, symName: __ZNSt3__122__compressed_pair_elemINS_9allocatorIiEELi1ELb1EEC2B8ue170006ENS_18__default_init_tagE, symObjAddr: 0x93A0, symBinAddr: 0x100010EEC, symSize: 0x2C }
  - { offsetInCU: 0x120D6, offset: 0x28C14, size: 0x8, addend: 0x0, symName: __ZNSt3__19allocatorIiEC2B8ue170006Ev, symObjAddr: 0x93CC, symBinAddr: 0x100010F18, symSize: 0x2C }
  - { offsetInCU: 0x120FF, offset: 0x28C3D, size: 0x8, addend: 0x0, symName: __ZNSt3__116__non_trivial_ifILb1ENS_9allocatorIiEEEC2B8ue170006Ev, symObjAddr: 0x93F8, symBinAddr: 0x100010F44, symSize: 0x14 }
  - { offsetInCU: 0x12128, offset: 0x28C66, size: 0x8, addend: 0x0, symName: __ZNSt3__16vectorI9POLY_DECLNS_9allocatorIS1_EEEC2B8ue170006Ev, symObjAddr: 0x940C, symBinAddr: 0x100010F58, symSize: 0x44 }
  - { offsetInCU: 0x12151, offset: 0x28C8F, size: 0x8, addend: 0x0, symName: __ZNSt3__117__compressed_pairIP9POLY_DECLNS_9allocatorIS1_EEEC1B8ue170006IDnNS_18__default_init_tagEEEOT_OT0_, symObjAddr: 0x9450, symBinAddr: 0x100010F9C, symSize: 0x3C }
  - { offsetInCU: 0x121A8, offset: 0x28CE6, size: 0x8, addend: 0x0, symName: __ZNSt3__117__compressed_pairIP9POLY_DECLNS_9allocatorIS1_EEEC2B8ue170006IDnNS_18__default_init_tagEEEOT_OT0_, symObjAddr: 0x948C, symBinAddr: 0x100010FD8, symSize: 0x40 }
  - { offsetInCU: 0x121FF, offset: 0x28D3D, size: 0x8, addend: 0x0, symName: __ZNSt3__122__compressed_pair_elemINS_9allocatorI9POLY_DECLEELi1ELb1EEC2B8ue170006ENS_18__default_init_tagE, symObjAddr: 0x94CC, symBinAddr: 0x100011018, symSize: 0x2C }
  - { offsetInCU: 0x12233, offset: 0x28D71, size: 0x8, addend: 0x0, symName: __ZNSt3__19allocatorI9POLY_DECLEC2B8ue170006Ev, symObjAddr: 0x94F8, symBinAddr: 0x100011044, symSize: 0x2C }
  - { offsetInCU: 0x1225C, offset: 0x28D9A, size: 0x8, addend: 0x0, symName: __ZNSt3__116__non_trivial_ifILb1ENS_9allocatorI9POLY_DECLEEEC2B8ue170006Ev, symObjAddr: 0x9524, symBinAddr: 0x100011070, symSize: 0x14 }
  - { offsetInCU: 0x3F, offset: 0x28F23, size: 0x8, addend: 0x0, symName: __ZL7var_map, symObjAddr: 0x2B6E0, symBinAddr: 0x100018240, symSize: 0x0 }
  - { offsetInCU: 0x5BB3, offset: 0x2EA97, size: 0x8, addend: 0x0, symName: __ZNSt3__1neB8ue170006IPNS_4pairINS_12basic_stringIcNS_11char_traitsIcEENS_9allocatorIcEEEEiEEEEbRKNS_11__wrap_iterIT_EESE_, symObjAddr: 0x1F8, symBinAddr: 0x10001127C, symSize: 0x34 }
  - { offsetInCU: 0x5BF6, offset: 0x2EADA, size: 0x8, addend: 0x0, symName: __ZNSt3__112__to_addressB8ue170006INS_4pairIiiEEEEPT_S4_, symObjAddr: 0x1414, symBinAddr: 0x100011E3C, symSize: 0x14 }
  - { offsetInCU: 0x5C2B, offset: 0x2EB0F, size: 0x8, addend: 0x0, symName: __ZNSt3__1eqB8ue170006IPNS_4pairINS_12basic_stringIcNS_11char_traitsIcEENS_9allocatorIcEEEEiEEEEbRKNS_11__wrap_iterIT_EESE_, symObjAddr: 0x1638, symBinAddr: 0x100012060, symSize: 0x48 }
  - { offsetInCU: 0x5E94, offset: 0x2ED78, size: 0x8, addend: 0x0, symName: __ZL10value_list, symObjAddr: 0x2B6F8, symBinAddr: 0x100018258, symSize: 0x0 }
  - { offsetInCU: 0x7F0F, offset: 0x30DF3, size: 0x8, addend: 0x0, symName: __ZNSt3__16vectorINS_4pairINS_12basic_stringIcNS_11char_traitsIcEENS_9allocatorIcEEEEiEENS5_IS8_EEEC1B8ue170006Ev, symObjAddr: 0x0, symBinAddr: 0x100011084, symSize: 0x2C }
  - { offsetInCU: 0x7F38, offset: 0x30E1C, size: 0x8, addend: 0x0, symName: __ZNSt3__16vectorINS_4pairINS_12basic_stringIcNS_11char_traitsIcEENS_9allocatorIcEEEEiEENS5_IS8_EEED1B8ue170006Ev, symObjAddr: 0x2C, symBinAddr: 0x1000110B0, symSize: 0x2C }
  - { offsetInCU: 0x7F61, offset: 0x30E45, size: 0x8, addend: 0x0, symName: __ZNSt3__16vectorINS_4pairIiiEENS_9allocatorIS2_EEEC1B8ue170006Ev, symObjAddr: 0x58, symBinAddr: 0x1000110DC, symSize: 0x2C }
  - { offsetInCU: 0x7F8A, offset: 0x30E6E, size: 0x8, addend: 0x0, symName: __ZNSt3__16vectorINS_4pairIiiEENS_9allocatorIS2_EEED1B8ue170006Ev, symObjAddr: 0x84, symBinAddr: 0x100011108, symSize: 0x2C }
  - { offsetInCU: 0x7FB3, offset: 0x30E97, size: 0x8, addend: 0x0, symName: __Z11grow_varmapNSt3__112basic_stringIcNS_11char_traitsIcEENS_9allocatorIcEEEE, symObjAddr: 0xB0, symBinAddr: 0x100011134, symSize: 0x14 }
  - { offsetInCU: 0x7FE0, offset: 0x30EC4, size: 0x8, addend: 0x0, symName: __Z10get_varmapNSt3__112basic_stringIcNS_11char_traitsIcEENS_9allocatorIcEEEE, symObjAddr: 0xC4, symBinAddr: 0x100011148, symSize: 0xD4 }
  - { offsetInCU: 0x8061, offset: 0x30F45, size: 0x8, addend: 0x0, symName: __ZNSt3__16vectorINS_4pairINS_12basic_stringIcNS_11char_traitsIcEENS_9allocatorIcEEEEiEENS5_IS8_EEE5beginB8ue170006Ev, symObjAddr: 0x198, symBinAddr: 0x10001121C, symSize: 0x30 }
  - { offsetInCU: 0x8087, offset: 0x30F6B, size: 0x8, addend: 0x0, symName: __ZNSt3__16vectorINS_4pairINS_12basic_stringIcNS_11char_traitsIcEENS_9allocatorIcEEEEiEENS5_IS8_EEE3endB8ue170006Ev, symObjAddr: 0x1C8, symBinAddr: 0x10001124C, symSize: 0x30 }
  - { offsetInCU: 0x80AD, offset: 0x30F91, size: 0x8, addend: 0x0, symName: __ZNKSt3__111__wrap_iterIPNS_4pairINS_12basic_stringIcNS_11char_traitsIcEENS_9allocatorIcEEEEiEEEdeB8ue170006Ev, symObjAddr: 0x22C, symBinAddr: 0x1000112B0, symSize: 0x18 }
  - { offsetInCU: 0x80D2, offset: 0x30FB6, size: 0x8, addend: 0x0, symName: __ZNSt3__111__wrap_iterIPNS_4pairINS_12basic_stringIcNS_11char_traitsIcEENS_9allocatorIcEEEEiEEEppB8ue170006Ev, symObjAddr: 0x38C, symBinAddr: 0x1000112C8, symSize: 0x20 }
  - { offsetInCU: 0x80F6, offset: 0x30FDA, size: 0x8, addend: 0x0, symName: __Z13get_valuelistii, symObjAddr: 0x440, symBinAddr: 0x1000112E8, symSize: 0x18 }
  - { offsetInCU: 0x8130, offset: 0x31014, size: 0x8, addend: 0x0, symName: __Z13set_valuelistii, symObjAddr: 0x458, symBinAddr: 0x100011300, symSize: 0x18 }
  - { offsetInCU: 0x816B, offset: 0x3104F, size: 0x8, addend: 0x0, symName: __Z10printTasksP7PROGRAM, symObjAddr: 0x470, symBinAddr: 0x100011318, symSize: 0xB0 }
  - { offsetInCU: 0x81B1, offset: 0x31095, size: 0x8, addend: 0x0, symName: __ZNSt3__16vectorIiNS_9allocatorIiEEEixB8ue170006Em, symObjAddr: 0x548, symBinAddr: 0x1000113C8, symSize: 0x24 }
  - { offsetInCU: 0x81E7, offset: 0x310CB, size: 0x8, addend: 0x0, symName: __Z13printPOLYDECLP7PROGRAM, symObjAddr: 0x56C, symBinAddr: 0x1000113EC, symSize: 0xAC }
  - { offsetInCU: 0x822D, offset: 0x31111, size: 0x8, addend: 0x0, symName: __ZNSt3__16vectorI9POLY_DECLNS_9allocatorIS1_EEEixB8ue170006Em, symObjAddr: 0x640, symBinAddr: 0x100011498, symSize: 0x2C }
  - { offsetInCU: 0x8263, offset: 0x31147, size: 0x8, addend: 0x0, symName: __ZNKSt3__112basic_stringIcNS_11char_traitsIcEENS_9allocatorIcEEE5c_strB8ue170006Ev, symObjAddr: 0x66C, symBinAddr: 0x1000114C4, symSize: 0x24 }
  - { offsetInCU: 0x8288, offset: 0x3116C, size: 0x8, addend: 0x0, symName: __Z11printINPUTSP7PROGRAM, symObjAddr: 0x690, symBinAddr: 0x1000114E8, symSize: 0xB0 }
  - { offsetInCU: 0x82CE, offset: 0x311B2, size: 0x8, addend: 0x0, symName: __Z12printEXECUTEP7PROGRAM, symObjAddr: 0x740, symBinAddr: 0x100011598, symSize: 0xE0 }
  - { offsetInCU: 0x8321, offset: 0x31205, size: 0x8, addend: 0x0, symName: __ZNSt3__16vectorINS_4pairINS_12basic_stringIcNS_11char_traitsIcEENS_9allocatorIcEEEEiEENS5_IS8_EEEC2B8ue170006Ev, symObjAddr: 0x820, symBinAddr: 0x100011678, symSize: 0x44 }
  - { offsetInCU: 0x8354, offset: 0x31238, size: 0x8, addend: 0x0, symName: __ZNSt3__117__compressed_pairIPNS_4pairINS_12basic_stringIcNS_11char_traitsIcEENS_9allocatorIcEEEEiEENS5_IS8_EEEC1B8ue170006IDnNS_18__default_init_tagEEEOT_OT0_, symObjAddr: 0x864, symBinAddr: 0x1000116BC, symSize: 0x3C }
  - { offsetInCU: 0x83AB, offset: 0x3128F, size: 0x8, addend: 0x0, symName: __ZNSt3__117__compressed_pairIPNS_4pairINS_12basic_stringIcNS_11char_traitsIcEENS_9allocatorIcEEEEiEENS5_IS8_EEEC2B8ue170006IDnNS_18__default_init_tagEEEOT_OT0_, symObjAddr: 0x8A0, symBinAddr: 0x1000116F8, symSize: 0x40 }
  - { offsetInCU: 0x8402, offset: 0x312E6, size: 0x8, addend: 0x0, symName: __ZNSt3__122__compressed_pair_elemINS_9allocatorINS_4pairINS_12basic_stringIcNS_11char_traitsIcEENS1_IcEEEEiEEEELi1ELb1EEC2B8ue170006ENS_18__default_init_tagE, symObjAddr: 0x8FC, symBinAddr: 0x100011738, symSize: 0x2C }
  - { offsetInCU: 0x8436, offset: 0x3131A, size: 0x8, addend: 0x0, symName: __ZNSt3__19allocatorINS_4pairINS_12basic_stringIcNS_11char_traitsIcEENS0_IcEEEEiEEEC2B8ue170006Ev, symObjAddr: 0x928, symBinAddr: 0x100011764, symSize: 0x2C }
  - { offsetInCU: 0x8460, offset: 0x31344, size: 0x8, addend: 0x0, symName: __ZNSt3__116__non_trivial_ifILb1ENS_9allocatorINS_4pairINS_12basic_stringIcNS_11char_traitsIcEENS1_IcEEEEiEEEEEC2B8ue170006Ev, symObjAddr: 0x954, symBinAddr: 0x100011790, symSize: 0x14 }
  - { offsetInCU: 0x8488, offset: 0x3136C, size: 0x8, addend: 0x0, symName: __ZNSt3__16vectorINS_4pairINS_12basic_stringIcNS_11char_traitsIcEENS_9allocatorIcEEEEiEENS5_IS8_EEED2B8ue170006Ev, symObjAddr: 0x968, symBinAddr: 0x1000117A4, symSize: 0x3C }
  - { offsetInCU: 0x84B1, offset: 0x31395, size: 0x8, addend: 0x0, symName: __ZNSt3__16vectorINS_4pairINS_12basic_stringIcNS_11char_traitsIcEENS_9allocatorIcEEEEiEENS5_IS8_EEE16__destroy_vectorC1B8ue170006ERSA_, symObjAddr: 0x9A4, symBinAddr: 0x1000117E0, symSize: 0x34 }
  - { offsetInCU: 0x84EA, offset: 0x313CE, size: 0x8, addend: 0x0, symName: __ZNSt3__16vectorINS_4pairINS_12basic_stringIcNS_11char_traitsIcEENS_9allocatorIcEEEEiEENS5_IS8_EEE16__destroy_vectorclB8ue170006Ev, symObjAddr: 0x9D8, symBinAddr: 0x100011814, symSize: 0x90 }
  - { offsetInCU: 0x850F, offset: 0x313F3, size: 0x8, addend: 0x0, symName: __ZNSt3__16vectorINS_4pairINS_12basic_stringIcNS_11char_traitsIcEENS_9allocatorIcEEEEiEENS5_IS8_EEE16__destroy_vectorC2B8ue170006ERSA_, symObjAddr: 0xA68, symBinAddr: 0x1000118A4, symSize: 0x20 }
  - { offsetInCU: 0x8547, offset: 0x3142B, size: 0x8, addend: 0x0, symName: __ZNSt3__16vectorINS_4pairINS_12basic_stringIcNS_11char_traitsIcEENS_9allocatorIcEEEEiEENS5_IS8_EEE7__clearB8ue170006Ev, symObjAddr: 0xA88, symBinAddr: 0x1000118C4, symSize: 0x28 }
  - { offsetInCU: 0x856C, offset: 0x31450, size: 0x8, addend: 0x0, symName: __ZNSt3__16vectorINS_4pairINS_12basic_stringIcNS_11char_traitsIcEENS_9allocatorIcEEEEiEENS5_IS8_EEE22__base_destruct_at_endB8ue170006EPS8_, symObjAddr: 0xC04, symBinAddr: 0x1000118EC, symSize: 0xA0 }
  - { offsetInCU: 0x85AF, offset: 0x31493, size: 0x8, addend: 0x0, symName: __ZNSt3__16vectorINS_4pairIiiEENS_9allocatorIS2_EEEC2B8ue170006Ev, symObjAddr: 0xF64, symBinAddr: 0x10001198C, symSize: 0x44 }
  - { offsetInCU: 0x85D8, offset: 0x314BC, size: 0x8, addend: 0x0, symName: __ZNSt3__117__compressed_pairIPNS_4pairIiiEENS_9allocatorIS2_EEEC1B8ue170006IDnNS_18__default_init_tagEEEOT_OT0_, symObjAddr: 0xFA8, symBinAddr: 0x1000119D0, symSize: 0x3C }
  - { offsetInCU: 0x862F, offset: 0x31513, size: 0x8, addend: 0x0, symName: __ZNSt3__117__compressed_pairIPNS_4pairIiiEENS_9allocatorIS2_EEEC2B8ue170006IDnNS_18__default_init_tagEEEOT_OT0_, symObjAddr: 0xFE4, symBinAddr: 0x100011A0C, symSize: 0x40 }
  - { offsetInCU: 0x8687, offset: 0x3156B, size: 0x8, addend: 0x0, symName: __ZNSt3__122__compressed_pair_elemIPNS_4pairIiiEELi0ELb0EEC2B8ue170006IDnvEEOT_, symObjAddr: 0x1024, symBinAddr: 0x100011A4C, symSize: 0x1C }
  - { offsetInCU: 0x86C7, offset: 0x315AB, size: 0x8, addend: 0x0, symName: __ZNSt3__122__compressed_pair_elemINS_9allocatorINS_4pairIiiEEEELi1ELb1EEC2B8ue170006ENS_18__default_init_tagE, symObjAddr: 0x1040, symBinAddr: 0x100011A68, symSize: 0x2C }
  - { offsetInCU: 0x86FB, offset: 0x315DF, size: 0x8, addend: 0x0, symName: __ZNSt3__19allocatorINS_4pairIiiEEEC2B8ue170006Ev, symObjAddr: 0x106C, symBinAddr: 0x100011A94, symSize: 0x2C }
  - { offsetInCU: 0x8725, offset: 0x31609, size: 0x8, addend: 0x0, symName: __ZNSt3__116__non_trivial_ifILb1ENS_9allocatorINS_4pairIiiEEEEEC2B8ue170006Ev, symObjAddr: 0x1098, symBinAddr: 0x100011AC0, symSize: 0x14 }
  - { offsetInCU: 0x874D, offset: 0x31631, size: 0x8, addend: 0x0, symName: __ZNSt3__16vectorINS_4pairIiiEENS_9allocatorIS2_EEED2B8ue170006Ev, symObjAddr: 0x10AC, symBinAddr: 0x100011AD4, symSize: 0x3C }
  - { offsetInCU: 0x8776, offset: 0x3165A, size: 0x8, addend: 0x0, symName: __ZNSt3__16vectorINS_4pairIiiEENS_9allocatorIS2_EEE16__destroy_vectorC1B8ue170006ERS5_, symObjAddr: 0x10E8, symBinAddr: 0x100011B10, symSize: 0x34 }
  - { offsetInCU: 0x87AF, offset: 0x31693, size: 0x8, addend: 0x0, symName: __ZNSt3__16vectorINS_4pairIiiEENS_9allocatorIS2_EEE16__destroy_vectorclB8ue170006Ev, symObjAddr: 0x111C, symBinAddr: 0x100011B44, symSize: 0x90 }
  - { offsetInCU: 0x87D4, offset: 0x316B8, size: 0x8, addend: 0x0, symName: __ZNSt3__16vectorINS_4pairIiiEENS_9allocatorIS2_EEE16__destroy_vectorC2B8ue170006ERS5_, symObjAddr: 0x11AC, symBinAddr: 0x100011BD4, symSize: 0x20 }
  - { offsetInCU: 0x880C, offset: 0x316F0, size: 0x8, addend: 0x0, symName: __ZNSt3__16vectorINS_4pairIiiEENS_9allocatorIS2_EEE7__clearB8ue170006Ev, symObjAddr: 0x11CC, symBinAddr: 0x100011BF4, symSize: 0x28 }
  - { offsetInCU: 0x8831, offset: 0x31715, size: 0x8, addend: 0x0, symName: __ZNKSt3__16vectorINS_4pairIiiEENS_9allocatorIS2_EEE17__annotate_deleteB8ue170006Ev, symObjAddr: 0x11F4, symBinAddr: 0x100011C1C, symSize: 0xB8 }
  - { offsetInCU: 0x8856, offset: 0x3173A, size: 0x8, addend: 0x0, symName: __ZNSt3__116allocator_traitsINS_9allocatorINS_4pairIiiEEEEE10deallocateB8ue170006ERS4_PS3_m, symObjAddr: 0x12AC, symBinAddr: 0x100011CD4, symSize: 0x34 }
  - { offsetInCU: 0x8898, offset: 0x3177C, size: 0x8, addend: 0x0, symName: __ZNSt3__16vectorINS_4pairIiiEENS_9allocatorIS2_EEE7__allocB8ue170006Ev, symObjAddr: 0x12E0, symBinAddr: 0x100011D08, symSize: 0x28 }
  - { offsetInCU: 0x88BD, offset: 0x317A1, size: 0x8, addend: 0x0, symName: __ZNKSt3__16vectorINS_4pairIiiEENS_9allocatorIS2_EEE8capacityB8ue170006Ev, symObjAddr: 0x1308, symBinAddr: 0x100011D30, symSize: 0x40 }
  - { offsetInCU: 0x88E2, offset: 0x317C6, size: 0x8, addend: 0x0, symName: __ZNSt3__16vectorINS_4pairIiiEENS_9allocatorIS2_EEE22__base_destruct_at_endB8ue170006EPS2_, symObjAddr: 0x1348, symBinAddr: 0x100011D70, symSize: 0xA0 }
  - { offsetInCU: 0x8926, offset: 0x3180A, size: 0x8, addend: 0x0, symName: __ZNSt3__116allocator_traitsINS_9allocatorINS_4pairIiiEEEEE7destroyB8ue170006IS3_vEEvRS4_PT_, symObjAddr: 0x13E8, symBinAddr: 0x100011E10, symSize: 0x2C }
  - { offsetInCU: 0x8963, offset: 0x31847, size: 0x8, addend: 0x0, symName: __ZNSt3__19allocatorINS_4pairIiiEEE7destroyB8ue170006EPS2_, symObjAddr: 0x1428, symBinAddr: 0x100011E50, symSize: 0x14 }
  - { offsetInCU: 0x8996, offset: 0x3187A, size: 0x8, addend: 0x0, symName: __ZNKSt3__16vectorINS_4pairIiiEENS_9allocatorIS2_EEE31__annotate_contiguous_containerB8ue170006EPKvS7_S7_S7_, symObjAddr: 0x143C, symBinAddr: 0x100011E64, symSize: 0x20 }
  - { offsetInCU: 0x89E7, offset: 0x318CB, size: 0x8, addend: 0x0, symName: __ZNKSt3__16vectorINS_4pairIiiEENS_9allocatorIS2_EEE4dataB8ue170006Ev, symObjAddr: 0x145C, symBinAddr: 0x100011E84, symSize: 0x28 }
  - { offsetInCU: 0x8A0C, offset: 0x318F0, size: 0x8, addend: 0x0, symName: __ZNKSt3__16vectorINS_4pairIiiEENS_9allocatorIS2_EEE4sizeB8ue170006Ev, symObjAddr: 0x1484, symBinAddr: 0x100011EAC, symSize: 0x28 }
  - { offsetInCU: 0x8A31, offset: 0x31915, size: 0x8, addend: 0x0, symName: __ZNSt3__19allocatorINS_4pairIiiEEE10deallocateB8ue170006EPS2_m, symObjAddr: 0x14AC, symBinAddr: 0x100011ED4, symSize: 0x70 }
  - { offsetInCU: 0x8A72, offset: 0x31956, size: 0x8, addend: 0x0, symName: __ZNSt3__117__compressed_pairIPNS_4pairIiiEENS_9allocatorIS2_EEE6secondB8ue170006Ev, symObjAddr: 0x151C, symBinAddr: 0x100011F44, symSize: 0x24 }
  - { offsetInCU: 0x8A97, offset: 0x3197B, size: 0x8, addend: 0x0, symName: __ZNSt3__122__compressed_pair_elemINS_9allocatorINS_4pairIiiEEEELi1ELb1EE5__getB8ue170006Ev, symObjAddr: 0x1540, symBinAddr: 0x100011F68, symSize: 0x14 }
  - { offsetInCU: 0x8ABC, offset: 0x319A0, size: 0x8, addend: 0x0, symName: __ZNKSt3__16vectorINS_4pairIiiEENS_9allocatorIS2_EEE9__end_capB8ue170006Ev, symObjAddr: 0x1554, symBinAddr: 0x100011F7C, symSize: 0x28 }
  - { offsetInCU: 0x8AE1, offset: 0x319C5, size: 0x8, addend: 0x0, symName: __ZNKSt3__117__compressed_pairIPNS_4pairIiiEENS_9allocatorIS2_EEE5firstB8ue170006Ev, symObjAddr: 0x157C, symBinAddr: 0x100011FA4, symSize: 0x24 }
  - { offsetInCU: 0x8B06, offset: 0x319EA, size: 0x8, addend: 0x0, symName: __ZNKSt3__122__compressed_pair_elemIPNS_4pairIiiEELi0ELb0EE5__getB8ue170006Ev, symObjAddr: 0x15A0, symBinAddr: 0x100011FC8, symSize: 0x14 }
  - { offsetInCU: 0x8B2B, offset: 0x31A0F, size: 0x8, addend: 0x0, symName: __ZNSt3__16vectorINS_4pairINS_12basic_stringIcNS_11char_traitsIcEENS_9allocatorIcEEEEiEENS5_IS8_EEE11__make_iterB8ue170006EPS8_, symObjAddr: 0x15B4, symBinAddr: 0x100011FDC, symSize: 0x30 }
  - { offsetInCU: 0x8B5E, offset: 0x31A42, size: 0x8, addend: 0x0, symName: __ZNSt3__111__wrap_iterIPNS_4pairINS_12basic_stringIcNS_11char_traitsIcEENS_9allocatorIcEEEEiEEEC1B8ue170006ES9_, symObjAddr: 0x15E4, symBinAddr: 0x10001200C, symSize: 0x34 }
  - { offsetInCU: 0x8B96, offset: 0x31A7A, size: 0x8, addend: 0x0, symName: __ZNSt3__111__wrap_iterIPNS_4pairINS_12basic_stringIcNS_11char_traitsIcEENS_9allocatorIcEEEEiEEEC2B8ue170006ES9_, symObjAddr: 0x1618, symBinAddr: 0x100012040, symSize: 0x20 }
  - { offsetInCU: 0x8BCD, offset: 0x31AB1, size: 0x8, addend: 0x0, symName: __ZNKSt3__111__wrap_iterIPNS_4pairINS_12basic_stringIcNS_11char_traitsIcEENS_9allocatorIcEEEEiEEE4baseB8ue170006Ev, symObjAddr: 0x1680, symBinAddr: 0x1000120A8, symSize: 0x18 }
...
